(dp0
S'7c2d'
p1
F0.34589
sS'jcjs'
p2
F0.77484
sS'7d5d'
p3
F0.43623
sS'7d5c'
p4
F0.40596
sS'7c2c'
p5
F0.38056
sS'8dqs'
p6
F0.53698
sS'7c2h'
p7
F0.348195
sS'ksac'
p8
F0.652685
sS'7d5h'
p9
F0.4061
sS'ah4c'
p10
F0.56638
sS'8dqh'
p11
F0.539425
sS'7d5s'
p12
F0.404435
sS'7c2s'
p13
F0.34568
sS'8dqc'
p14
F0.534465
sS'qc9d'
p15
F0.55273
sS'qc9c'
p16
F0.576645
sS'8dqd'
p17
F0.560075
sS'2s2s'
p18
I0
sS'9c3d'
p19
F0.397375
sS'3c4h'
p20
F0.34975
sS'qc4s'
p21
F0.492085
sS'kd8d'
p22
F0.585995
sS'9c3c'
p23
F0.431525
sS'3c4c'
p24
F0.38499
sS'9c3h'
p25
F0.399315
sS'3c4d'
p26
F0.351045
sS'2s2c'
p27
F0.502185
sS'kd8s'
p28
F0.557075
sS'9c3s'
p29
F0.39863
sS'2s2d'
p30
F0.50305
sS'3c4s'
p31
F0.3524
sS'2s2h'
p32
F0.50629
sS'3hts'
p33
F0.424155
sS'qc9s'
p34
F0.55396
sS'3htc'
p35
F0.42757
sS'3htd'
p36
F0.424705
sS'3hth'
p37
F0.455085
sS'jcjc'
p38
I0
sS'2s7d'
p39
F0.34596
sS'kstc'
p40
F0.596745
sS'js6s'
p41
F0.502835
sS'kstd'
p42
F0.599005
sS'ksth'
p43
F0.597515
sS'jcjd'
p44
F0.774555
sS'qdqh'
p45
F0.796905
sS'ksts'
p46
F0.61752
sS'8had'
p47
F0.59773
sS'js6c'
p48
F0.47714
sS'2s7c'
p49
F0.347255
sS'qdqd'
p50
I0
sS'js6h'
p51
F0.478115
sS'9cjs'
p52
F0.53487
sS'4sac'
p53
F0.56711
sS'4sad'
p54
F0.56557
sS'tdjd'
p55
F0.57425
sS'4sah'
p56
F0.565085
sS'tdjh'
p57
F0.552695
sS'9cjc'
p58
F0.557235
sS'4sas'
p59
F0.58803
sS'9cjd'
p60
F0.53343
sS'9cjh'
p61
F0.53221
sS'jcad'
p62
F0.63527
sS'jcac'
p63
F0.655695
sS'9s6s'
p64
F0.478945
sS'5dqs'
p65
F0.500995
sS'7sks'
p66
F0.574765
sS'kd8c'
p67
F0.56051
sS'jcah'
p68
F0.63679
sS'ad3d'
p69
F0.581155
sS'jcas'
p70
F0.636015
sS'7skh'
p71
F0.54867
sS'7skd'
p72
F0.551935
sS'7skc'
p73
F0.555235
sS'ad3h'
p74
F0.55895
sS'6h3c'
p75
F0.361055
sS'td7c'
p76
F0.48138
sS'6h3d'
p77
F0.36175
sS'js8s'
p78
F0.53821
sS'6h3h'
p79
F0.395055
sS'as4d'
p80
F0.567055
sS'6h3s'
p81
F0.360515
sS'js8h'
p82
F0.51388
sS'kd8h'
p83
F0.556135
sS'js8c'
p84
F0.5148
sS'2s7s'
p85
F0.38152
sS'js8d'
p86
F0.51476
sS'kcts'
p87
F0.59667
sS'kctc'
p88
F0.617405
sS'kctd'
p89
F0.597485
sS'kcth'
p90
F0.598585
sS'2c2c'
p91
I0
sS'8hkd'
p92
F0.55939
sS'8c9h'
p93
F0.482475
sS'qsjc'
p94
F0.578985
sS'8hkc'
p95
F0.561495
sS'7s2s'
p96
F0.381945
sS'8c9d'
p97
F0.481505
sS'tc7s'
p98
F0.478045
sS'ac6s'
p99
F0.576165
sS'2c2h'
p100
F0.50523
sS'8hkh'
p101
F0.58303
sS'8c9c'
p102
F0.507195
sS'2c2s'
p103
F0.50562
sS'tc7h'
p104
F0.477965
sS'8hks'
p105
F0.56017
sS'7s2c'
p106
F0.346045
sS'tc7c'
p107
F0.50555
sS'7s2h'
p108
F0.34631
sS'tc7d'
p109
F0.47819
sS'8c9s'
p110
F0.483115
sS'3h3d'
p111
F0.536325
sS'5h4s'
p112
F0.38284
sS'9s3s'
p113
F0.43279
sS'3h3c'
p114
F0.535105
sS'3h3h'
p115
I0
sS'9s3d'
p116
F0.399175
sS'5h4d'
p117
F0.380725
sS'5h4c'
p118
F0.380785
sS'9s3c'
p119
F0.39796
sS'3h3s'
p120
F0.53715
sS'asqc'
p121
F0.64177
sS'9s3h'
p122
F0.39951
sS'5h4h'
p123
F0.41327
sS'6d9d'
p124
F0.475295
sS'5d4h'
p125
F0.381385
sS'6skh'
p126
F0.542155
sS'6d9c'
p127
F0.44512
sS'4dqh'
p128
F0.49354
sS'5d4c'
p129
F0.384575
sS'4dqd'
p130
F0.521345
sS'4dqc'
p131
F0.492575
sS'6d9h'
p132
F0.44544
sS'5d4d'
p133
F0.415785
sS'ac4h'
p134
F0.5693
sS'8d8c'
p135
F0.691675
sS'8d8d'
p136
I0
sS'5cjh'
p137
F0.474735
sS'5d4s'
p138
F0.382515
sS'5cjd'
p139
F0.470795
sS'ac4c'
p140
F0.591215
sS'4dqs'
p141
F0.492055
sS'5cjc'
p142
F0.502555
sS'6sks'
p143
F0.56791
sS'th8h'
p144
F0.52512
sS'ts7h'
p145
F0.478295
sS'2d7d'
p146
F0.378805
sS'2d7c'
p147
F0.347995
sS'ts7c'
p148
F0.478275
sS'th8c'
p149
F0.499845
sS'th8d'
p150
F0.499095
sS'ts7d'
p151
F0.48203
sS'2d7h'
p152
F0.343905
sS'2d7s'
p153
F0.346465
sS'ts7s'
p154
F0.50533
sS'th8s'
p155
F0.495835
sS'3djc'
p156
F0.450805
sS'qcas'
p157
F0.644585
sS'6hks'
p158
F0.54077
sS'2cks'
p159
F0.502805
sS'2ckh'
p160
F0.50402
sS'8h2c'
p161
F0.369525
sS'6hkh'
p162
F0.56675
sS'qcac'
p163
F0.660655
sS'8h2d'
p164
F0.36832
sS'6hkc'
p165
F0.54338
sS'9s9c'
p166
F0.719105
sS'8h2h'
p167
F0.40182
sS'2ckc'
p168
F0.53235
sS'2ckd'
p169
F0.504455
sS'6hkd'
p170
F0.542855
sS'3s5d'
p171
F0.36244
sS'7hkc'
p172
F0.550155
sS'7hkd'
p173
F0.551805
sS'3s5c'
p174
F0.36386
sS'7hkh'
p175
F0.57832
sS'3djd'
p176
F0.48208
sS'3s5h'
p177
F0.362775
sS'7hks'
p178
F0.551845
sS'3s5s'
p179
F0.39601
sS'4c9h'
p180
F0.406325
sS'2d9h'
p181
F0.38965
sS'3ckh'
p182
F0.513275
sS'3ckc'
p183
F0.538325
sS'2d9c'
p184
F0.390545
sS'4c9c'
p185
F0.43847
sS'4c9d'
p186
F0.40876
sS'2d9d'
p187
F0.42077
sS'3ckd'
p188
F0.515725
sS'3cks'
p189
F0.51288
sS'2d9s'
p190
F0.38973
sS'4c9s'
p191
F0.403765
sS'7dac'
p192
F0.58888
sS'kh7c'
p193
F0.552225
sS'kh7d'
p194
F0.549845
sS'7dad'
p195
F0.61139
sS'kh7h'
p196
F0.57323
sS'7dah'
p197
F0.59029
sS'kc2h'
p198
F0.505335
sS'7das'
p199
F0.58876
sS'kh7s'
p200
F0.550525
sS'qd9s'
p201
F0.552455
sS'6das'
p202
F0.57706
sS'qd9c'
p203
F0.55357
sS'qd9d'
p204
F0.57734
sS'6dah'
p205
F0.575555
sS'qd9h'
p206
F0.55314
sS'6dad'
p207
F0.59913
sS'6dac'
p208
F0.576865
sS'adqc'
p209
F0.64412
sS'jc2c'
p210
F0.473545
sS'7h4s'
p211
F0.38489
sS'8s9s'
p212
F0.51106
sS'8s9h'
p213
F0.485025
sS'7h4h'
p214
F0.417495
sS'8s9d'
p215
F0.48028
sS'7h4d'
p216
F0.385755
sS'7h4c'
p217
F0.38442
sS'8s9c'
p218
F0.482055
sS'5djs'
p219
F0.47157
sS'4s9s'
p220
F0.43929
sS'9d3s'
p221
F0.400745
sS'4s9h'
p222
F0.40254
sS'5djd'
p223
F0.4977
sS'5djc'
p224
F0.4722
sS'9d3d'
p225
F0.433675
sS'4s9c'
p226
F0.404985
sS'4s9d'
p227
F0.40538
sS'5djh'
p228
F0.472975
sS'9s5s'
p229
F0.4592
sS'2dac'
p230
F0.549525
sS'2dad'
p231
F0.57137
sS'2dah'
p232
F0.54733
sS'7h7c'
p233
F0.662405
sS'jhth'
p234
F0.574635
sS'2das'
p235
F0.549725
sS'jhts'
p236
F0.550585
sS'ad2h'
p237
F0.550785
sS'qsad'
p238
F0.642495
sS'jcth'
p239
F0.55161
sS'as5h'
p240
F0.57748
sS'as5c'
p241
F0.57618
sS'7h7h'
p242
I0
sS'as5d'
p243
F0.57699
sS'as5s'
p244
F0.59899
sS'7d4c'
p245
F0.38283
sS'7c3d'
p246
F0.36556
sS'7c3c'
p247
F0.39793
sS'7d4d'
p248
F0.41971
sS'7d4h'
p249
F0.38496
sS'7c3h'
p250
F0.3635
sS'7d4s'
p251
F0.383665
sS'7c3s'
p252
F0.362635
sS'ac6h'
p253
F0.574265
sS'jd4d'
p254
F0.49224
sS'9s5c'
p255
F0.429535
sS'9c4c'
p256
F0.43784
sS'9c4d'
p257
F0.406425
sS'3c5s'
p258
F0.36486
sS'9c4h'
p259
F0.40974
sS'qh3h'
p260
F0.510145
sS'kd7c'
p261
F0.55222
sS'3c5d'
p262
F0.3603
sS'9c4s'
p263
F0.408215
sS'3c5c'
p264
F0.39506
sS'3c5h'
p265
F0.360825
sS'kd7s'
p266
F0.551345
sS'5h7s'
p267
F0.40438
sS'3h2d'
p268
F0.324195
sS'2h6d'
p269
F0.340775
sS'2h6h'
p270
F0.377935
sS'3h2h'
p271
F0.358305
sS'5h7c'
p272
F0.40617
sS'2h6s'
p273
F0.337785
sS'3h2s'
p274
F0.32448
sS'5h7d'
p275
F0.40579
sS'9s4h'
p276
F0.406395
sS'5h7h'
p277
F0.436675
sS'jc2d'
p278
F0.44189
sS'8d9s'
p279
F0.483255
sS'5d7s'
p280
F0.407715
sS'6sjh'
p281
F0.48049
sS'ac5s'
p282
F0.576
sS'5cks'
p283
F0.53195
sS'6sjd'
p284
F0.478715
sS'6sjc'
p285
F0.478395
sS'8d9c'
p286
F0.48013
sS'5ckh'
p287
F0.532315
sS'5d7d'
p288
F0.437235
sS'ac5h'
p289
F0.577635
sS'5d7c'
p290
F0.407465
sS'8d9d'
p291
F0.508525
sS'ac5c'
p292
F0.598295
sS'5ckc'
p293
F0.558095
sS'8d9h'
p294
F0.47882
sS'6sjs'
p295
F0.50516
sS'5ckd'
p296
F0.53569
sS'5d7h'
p297
F0.4073
sS'ac5d'
p298
F0.579155
sS'js5s'
p299
F0.50087
sS'qdqs'
p300
F0.801125
sS'jhjs'
p301
F0.77495
sS'js5c'
p302
F0.46809
sS'jhjh'
p303
I0
sS'js5d'
p304
F0.471855
sS'jhjd'
p305
F0.77727
sS'js5h'
p306
F0.4712
sS'jhjc'
p307
F0.773335
sS'6s7h'
p308
F0.42182
sS'asjh'
p309
F0.637095
sS'tdkh'
p310
F0.597865
sS'tdkd'
p311
F0.615185
sS'6s7c'
p312
F0.423035
sS'6s7d'
p313
F0.424705
sS'9cks'
p314
F0.5784
sS'qcjs'
p315
F0.582785
sS'js6d'
p316
F0.47934
sS'9ckh'
p317
F0.577485
sS'kc2d'
p318
F0.503435
sS'9ckd'
p319
F0.57683
sS'6s7s'
p320
F0.45436
sS'9ckc'
p321
F0.60143
sS'7hjc'
p322
F0.50007
sS'3s2c'
p323
F0.32263
sS'3s2d'
p324
F0.322295
sS'tsks'
p325
F0.61812
sS'7hjd'
p326
F0.497805
sS'3s2h'
p327
F0.32283
sS'7hjh'
p328
F0.52392
sS'jh8h'
p329
F0.53887
sS'7hjs'
p330
F0.496035
sS'tskd'
p331
F0.59736
sS'3s2s'
p332
F0.362525
sS'tskc'
p333
F0.594115
sS'ah4d'
p334
F0.5654
sS'tskh'
p335
F0.595555
sS'4c8h'
p336
F0.39233
sS'4c8c'
p337
F0.428745
sS'4c8d'
p338
F0.395505
sS'8cts'
p339
F0.49539
sS'8hqs'
p340
F0.53618
sS'jh8c'
p341
F0.515235
sS'4c8s'
p342
F0.39472
sS'5d6d'
p343
F0.428505
sS'tc6d'
p344
F0.458185
sS'tc6c'
p345
F0.490655
sS'tdjc'
p346
F0.55355
sS'tc6h'
p347
F0.46252
sS'kdac'
p348
F0.6544
sS'tc6s'
p349
F0.462615
sS'7s3s'
p350
F0.40344
sS'8c8h'
p351
F0.68967
sS'8c8d'
p352
F0.69292
sS'8c8c'
p353
I0
sS'acjh'
p354
F0.6372
sS'8sad'
p355
F0.59739
sS'7s3d'
p356
F0.366135
sS'7s3c'
p357
F0.366165
sS'8sac'
p358
F0.598805
sS'6c7c'
p359
F0.453025
sS'6c7d'
p360
F0.42238
sS'7s3h'
p361
F0.366135
sS'qcth'
p362
F0.57136
sS'4cqc'
p363
F0.52064
sS'4cqd'
p364
F0.491055
sS'4cqh'
p365
F0.49536
sS'7h3s'
p366
F0.365365
sS'8s8s'
p367
I0
sS'7h3h'
p368
F0.40101
sS'4cqs'
p369
F0.4905
sS'8s8h'
p370
F0.690735
sS'ahtc'
p371
F0.626085
sS'8s8d'
p372
F0.69208
sS'8s8c'
p373
F0.688495
sS'jc4h'
p374
F0.46174
sS'jd4s'
p375
F0.46454
sS'tdjs'
p376
F0.55408
sS'4s8s'
p377
F0.426865
sS'9d2s'
p378
F0.39162
sS'kdas'
p379
F0.653545
sS'9d2h'
p380
F0.39267
sS'4s8h'
p381
F0.39365
sS'jc4d'
p382
F0.460795
sS'4s8c'
p383
F0.394905
sS'9d2c'
p384
F0.391305
sS'8ctd'
p385
F0.495145
sS'9d2d'
p386
F0.425735
sS'4s8d'
p387
F0.39342
sS'2d4c'
p388
F0.33334
sS'th9h'
p389
F0.539645
sS'2d4d'
p390
F0.369715
sS'th9c'
p391
F0.517525
sS'2d4h'
p392
F0.33359
sS'qs7c'
p393
F0.51982
sS'th9d'
p394
F0.516705
sS'2d4s'
p395
F0.333
sS'jc4c'
p396
F0.49137
sS'ts6c'
p397
F0.45932
sS'th9s'
p398
F0.517395
sS'ts6h'
p399
F0.458255
sS'9dks'
p400
F0.57551
sS'2cjs'
p401
F0.443315
sS'8h3s'
p402
F0.372715
sS'2cjh'
p403
F0.442075
sS'8h3h'
p404
F0.411885
sS'2cjc'
p405
F0.475005
sS'8h3d'
p406
F0.373905
sS'8h3c'
p407
F0.37508
sS'2cjd'
p408
F0.43923
sS'jc8c'
p409
F0.540335
sS'5sah'
p410
F0.576175
sS'6dts'
p411
F0.46262
sS'qskd'
p412
F0.61521
sS'5sac'
p413
F0.57907
sS'qsts'
p414
F0.59423
sS'5sad'
p415
F0.577125
sS'qsth'
p416
F0.57258
sS'6dtd'
p417
F0.49213
sS'4sqc'
p418
F0.48899
sS'4sqd'
p419
F0.49115
sS'6dtc'
p420
F0.461105
sS'5sas'
p421
F0.600155
sS'qstc'
p422
F0.575145
sS'qstd'
p423
F0.572625
sS'6dth'
p424
F0.463335
sS'ad3s'
p425
F0.558155
sS'9c5c'
p426
F0.457225
sS'3c2s'
p427
F0.322085
sS'qc2d'
p428
F0.473225
sS'9c5d'
p429
F0.426875
sS'qh2d'
p430
F0.474255
sS'9c5h'
p431
F0.426905
sS'kd6c'
p432
F0.54386
sS'qs7s'
p433
F0.54235
sS'qh2c'
p434
F0.47194
sS'9c5s'
p435
F0.42606
sS'3c2c'
p436
F0.35891
sS'3c2d'
p437
F0.32578
sS'jc4s'
p438
F0.46225
sS'3c2h'
p439
F0.32176
sS'kd6s'
p440
F0.542725
sS'qc2h'
p441
F0.47136
sS'qh2s'
p442
F0.473435
sS'9dkc'
p443
F0.57817
sS'kh6c'
p444
F0.54138
sS'adtd'
p445
F0.64677
sS'adtc'
p446
F0.627085
sS'kh6d'
p447
F0.544575
sS'kh6h'
p448
F0.567975
sS'qskh'
p449
F0.61391
sS'kh6s'
p450
F0.547445
sS'adts'
p451
F0.625225
sS'qd8s'
p452
F0.53545
sS'jh2s'
p453
F0.44335
sS'kdkc'
p454
F0.823735
sS'kdkd'
p455
I0
sS'jh2d'
p456
F0.44379
sS'asqs'
p457
F0.657775
sS'jh2c'
p458
F0.4438
sS'qd8h'
p459
F0.54
sS'jh2h'
p460
F0.473335
sS'ah2h'
p461
F0.57644
sS'kc4d'
p462
F0.52515
sS'jhks'
p463
F0.60973
sS'js4s'
p464
F0.489735
sS'js4h'
p465
F0.46181
sS'jhkh'
p466
F0.627375
sS'js4d'
p467
F0.461905
sS'jhkd'
p468
F0.60288
sS'jhkc'
p469
F0.60935
sS'js4c'
p470
F0.46295
sS'qd8d'
p471
F0.558295
sS'6s6h'
p472
F0.631835
sS'asks'
p473
F0.670735
sS'6s6c'
p474
F0.633935
sS'kc4s'
p475
F0.522145
sS'6s6d'
p476
F0.635045
sS'qc4h'
p477
F0.49037
sS'askd'
p478
F0.655985
sS'ah2c'
p479
F0.54885
sS'askc'
p480
F0.654745
sS'6s6s'
p481
I0
sS'askh'
p482
F0.655135
sS'as4h'
p483
F0.56635
sS'3sjs'
p484
F0.481935
sS'3sjh'
p485
F0.453845
sS'3sjc'
p486
F0.453925
sS'3sjd'
p487
F0.45346
sS'3d4h'
p488
F0.350605
sS'5dqd'
p489
F0.52569
sS'td5d'
p490
F0.47358
sS'as6s'
p491
F0.599035
sS'5dqc'
p492
F0.50192
sS'5dqh'
p493
F0.49963
sS'as6d'
p494
F0.576845
sS'as6c'
p495
F0.578015
sS'3d4d'
p496
F0.387175
sS'as6h'
p497
F0.577615
sS'ks2h'
p498
F0.506025
sS'as4c'
p499
F0.56644
sS'8d4s'
p500
F0.393565
sS'qcjh'
p501
F0.58303
sS'8d4d'
p502
F0.42876
sS'3d4c'
p503
F0.35122
sS'8d4c'
p504
F0.39455
sS'8d4h'
p505
F0.393035
sS'6c6s'
p506
F0.632855
sS'6c6h'
p507
F0.633255
sS'asjd'
p508
F0.63571
sS'qcjc'
p509
F0.602215
sS'6c6c'
p510
I0
sS'6c6d'
p511
F0.631585
sS'2h7c'
p512
F0.347695
sS'ac6d'
p513
F0.575695
sS'ks2c'
p514
F0.50242
sS'ac6c'
p515
F0.600525
sS'2h7d'
p516
F0.34601
sS'2h7h'
p517
F0.381335
sS'5h6s'
p518
F0.401985
sS'adks'
p519
F0.65383
sS'2h7s'
p520
F0.34797
sS'5h6h'
p521
F0.43289
sS'9s5d'
p522
F0.43006
sS'5h6d'
p523
F0.39917
sS'9s5h'
p524
F0.428455
sS'5h6c'
p525
F0.400815
sS'5d6s'
p526
F0.40127
sS'as4s'
p527
F0.589475
sS'kh9d'
p528
F0.579165
sS'5d6c'
p529
F0.398565
sS'6s9d'
p530
F0.44493
sS'5d6h'
p531
F0.40061
sS'9hts'
p532
F0.51527
sS'jskc'
p533
F0.605605
sS'jskd'
p534
F0.60698
sS'2d5h'
p535
F0.343745
sS'jskh'
p536
F0.607285
sS'2d5d'
p537
F0.37967
sS'2d5c'
p538
F0.34338
sS'qd3h'
p539
F0.48038
sS'9htc'
p540
F0.515545
sS'jsks'
p541
F0.624965
sS'9htd'
p542
F0.515845
sS'9hth'
p543
F0.54086
sS'2d5s'
p544
F0.341815
sS'td2h'
p545
F0.417095
sS'4h2h'
p546
F0.36901
sS'kh9s'
p547
F0.580635
sS'td2c'
p548
F0.417735
sS'4h2d'
p549
F0.33156
sS'8h4s'
p550
F0.39253
sS'4h2c'
p551
F0.332185
sS'td2d'
p552
F0.4497
sS'adkc'
p553
F0.65344
sS'8h4h'
p554
F0.42682
sS'td2s'
p555
F0.417445
sS'8h4c'
p556
F0.39544
sS'8h4d'
p557
F0.39423
sS'4h2s'
p558
F0.332475
sS'3s3c'
p559
F0.53539
sS'tsjs'
p560
F0.57313
sS'kc8h'
p561
F0.560565
sS'3s3d'
p562
F0.535895
sS'3s3h'
p563
F0.53751
sS'kd7d'
p564
F0.577105
sS'3s3s'
p565
I0
sS'tsjc'
p566
F0.55006
sS'tsjd'
p567
F0.55382
sS'adkh'
p568
F0.653815
sS'tsjh'
p569
F0.55187
sS'adkd'
p570
F0.66655
sS'8h5c'
p571
F0.414665
sS'jc8s'
p572
F0.514235
sS'9dth'
p573
F0.517225
sS'9dtd'
p574
F0.54039
sS'9dtc'
p575
F0.51579
sS'kc8c'
p576
F0.581805
sS'kdth'
p577
F0.5983
sS'kc2s'
p578
F0.504385
sS'9dts'
p579
F0.514345
sS'7hth'
p580
F0.50488
sS'jdth'
p581
F0.55115
sS'acad'
p582
F0.85062
sS'acac'
p583
I0
sS'kh5h'
p584
F0.558115
sS'3d8h'
p585
F0.374405
sS'jdtc'
p586
F0.55298
sS'kh5d'
p587
F0.53187
sS'kh5c'
p588
F0.5311
sS'jdtd'
p589
F0.575975
sS'acah'
p590
F0.85074
sS'acas'
p591
F0.851765
sS'jdts'
p592
F0.557265
sS'kh5s'
p593
F0.53047
sS'kdjh'
p594
F0.604515
sS'jh3s'
p595
F0.45342
sS'7d8s'
p596
F0.45043
sS'kdjc'
p597
F0.604505
sS'kdjd'
p598
F0.625995
sS'jh3d'
p599
F0.452345
sS'jh3c'
p600
F0.45208
sS'7htc'
p601
F0.479865
sS'kdjs'
p602
F0.605025
sS'6cah'
p603
F0.57876
sS'jh3h'
p604
F0.48266
sS'3hkh'
p605
F0.541035
sS'7h2s'
p606
F0.34626
sS'3hkc'
p607
F0.511765
sS'7h2h'
p608
F0.379555
sS'qdas'
p609
F0.64575
sS'7h2c'
p610
F0.342905
sS'7h2d'
p611
F0.34669
sS'7dqs'
p612
F0.517625
sS'3dqs'
p613
F0.4803
sS'6cas'
p614
F0.57773
sS'2c2d'
p615
F0.50447
sS'7dqc'
p616
F0.51814
sS'3dqd'
p617
F0.509205
sS'3dqc'
p618
F0.48029
sS'7dqd'
p619
F0.54281
sS'ksjd'
p620
F0.606725
sS'7dqh'
p621
F0.515695
sS'3dqh'
p622
F0.479015
sS'9c8d'
p623
F0.482165
sS'7cjh'
p624
F0.49537
sS'qd7d'
p625
F0.542155
sS'9c8c'
p626
F0.508305
sS'7cjd'
p627
F0.49771
sS'kc4c'
p628
F0.54783
sS'9c8h'
p629
F0.480825
sS'7cjc'
p630
F0.519745
sS'ksjh'
p631
F0.60559
sS'3skh'
p632
F0.515755
sS'9c8s'
p633
F0.479625
sS'3skc'
p634
F0.515785
sS'qd7h'
p635
F0.512405
sS'7cjs'
p636
F0.49703
sS'7s2d'
p637
F0.344565
sS'as7s'
p638
F0.60923
sS'as7c'
p639
F0.58823
sS'as7d'
p640
F0.58979
sS'7c8s'
p641
F0.44681
sS'as7h'
p642
F0.59087
sS'qd5s'
p643
F0.500765
sS'qd5d'
p644
F0.527355
sS'qd5c'
p645
F0.5005
sS'qd5h'
p646
F0.50332
sS'3c3s'
p647
F0.53766
sS'kd5h'
p648
F0.52852
sS'9c6h'
p649
F0.446375
sS'thqd'
p650
F0.574425
sS'kd5c'
p651
F0.5358
sS'9c6d'
p652
F0.443305
sS'thqh'
p653
F0.59009
sS'qh5d'
p654
F0.501255
sS'9c6c'
p655
F0.472515
sS'kd5d'
p656
F0.556565
sS'3c3c'
p657
I0
sS'3c3d'
p658
F0.53783
sS'kd5s'
p659
F0.532645
sS'3c3h'
p660
F0.53926
sS'9c6s'
p661
F0.44391
sS'ac7c'
p662
F0.60913
sS'ac7d'
p663
F0.585605
sS'2h4h'
p664
F0.372155
sS'ac7h'
p665
F0.58705
sS'2h4d'
p666
F0.33539
sS'7s5c'
p667
F0.404665
sS'4hts'
p668
F0.435265
sS'ac7s'
p669
F0.588895
sS'4hth'
p670
F0.465155
sS'9s6h'
p671
F0.44588
sS'4htd'
p672
F0.433925
sS'9s6d'
p673
F0.44538
sS'2h4s'
p674
F0.332995
sS'4htc'
p675
F0.43508
sS'4dts'
p676
F0.43907
sS'8d8s'
p677
F0.694215
sS'ahkh'
p678
F0.670035
sS'5d9s'
p679
F0.4239
sS'4dtc'
p680
F0.437375
sS'5d9h'
p681
F0.426275
sS'8s2s'
p682
F0.401265
sS'7s5h'
p683
F0.404565
sS'5d9d'
p684
F0.4561
sS'5d9c'
p685
F0.426465
sS'qskc'
p686
F0.613545
sS'4hjd'
p687
F0.460865
sS'5c8c'
p688
F0.448385
sS'5c8d'
p689
F0.415775
sS'4hjc'
p690
F0.461165
sS'5c8h'
p691
F0.4154
sS'js3s'
p692
F0.482465
sS'9sas'
p693
F0.626435
sS'4hjh'
p694
F0.49362
sS'js3h'
p695
F0.449925
sS'5c8s'
p696
F0.41535
sS'4hjs'
p697
F0.46173
sS'9sah'
p698
F0.609035
sS'9sad'
p699
F0.608105
sS'9sac'
p700
F0.60989
sS'6s5s'
p701
F0.43073
sS'6s5d'
p702
F0.39916
sS'6s5c'
p703
F0.399435
sS'ks7c'
p704
F0.552335
sS'6s5h'
p705
F0.396925
sS'adjs'
p706
F0.63578
sS'adjh'
p707
F0.635765
sS'adjc'
p708
F0.63639
sS'adjd'
p709
F0.65723
sS'9s8s'
p710
F0.50789
sS'9s8d'
p711
F0.481285
sS'9s8c'
p712
F0.482635
sS'9s8h'
p713
F0.481725
sS'6d2d'
p714
F0.377085
sS'6c5d'
p715
F0.399265
sS'5s8s'
p716
F0.44782
sS'8d5s'
p717
F0.416705
sS'6c5c'
p718
F0.43146
sS'6d2c'
p719
F0.341715
sS'ac9c'
p720
F0.628935
sS'6d2h'
p721
F0.34058
sS'6c5h'
p722
F0.39694
sS'qdkh'
p723
F0.610925
sS'5s8c'
p724
F0.41367
sS'5s8d'
p725
F0.41561
sS'6c5s'
p726
F0.399705
sS'6d2s'
p727
F0.34214
sS'5s8h'
p728
F0.41568
sS'8d5h'
p729
F0.414405
sS'QhQd'
p730
F0.2
sS'6skd'
p731
F0.54509
sS'ac4s'
p732
F0.568245
sS'3hjh'
p733
F0.483435
sS'6hts'
p734
F0.46236
sS'3hjd'
p735
F0.454865
sS'3hjc'
p736
F0.450875
sS'5cjs'
p737
F0.472725
sS'6hth'
p738
F0.4845
sS'6htc'
p739
F0.460885
sS'6skc'
p740
F0.5434
sS'3hjs'
p741
F0.45279
sS'6htd'
p742
F0.459645
sS'ac9s'
p743
F0.608375
sS'3hkd'
p744
F0.51418
sS'2d2h'
p745
F0.502885
sS'9dac'
p746
F0.60872
sS'9dad'
p747
F0.629905
sS'6d9s'
p748
F0.44638
sS'jsjd'
p749
F0.77456
sS'9dah'
p750
F0.606785
sS'2d2c'
p751
F0.50652
sS'2d2d'
p752
I0
sS'jsjs'
p753
I0
sS'8d8h'
p754
F0.69343
sS'8dah'
p755
F0.596885
sS'2d2s'
p756
F0.50592
sS'4h3h'
p757
F0.38803
sS'kcas'
p758
F0.65395
sS'4cas'
p759
F0.565805
sS'td3s'
p760
F0.425775
sS'5cqc'
p761
F0.527475
sS'ac4d'
p762
F0.567015
sS'4h3c'
p763
F0.352195
sS'4h3d'
p764
F0.352515
sS'5cqd'
p765
F0.50186
sS'td3d'
p766
F0.457895
sS'kcac'
p767
F0.66986
sS'4cac'
p768
F0.59164
sS'4cad'
p769
F0.56555
sS'kcad'
p770
F0.65396
sS'td3c'
p771
F0.42765
sS'4cah'
p772
F0.56606
sS'kcah'
p773
F0.6552
sS'4h3s'
p774
F0.354775
sS'td3h'
p775
F0.424075
sS'8h5d'
p776
F0.415335
sS'7c6h'
p777
F0.423965
sS'9hkc'
p778
F0.576475
sS'7d9h'
p779
F0.462525
sS'qd4s'
p780
F0.489845
sS'3d9h'
p781
F0.400525
sS'7d9c'
p782
F0.46277
sS'3d9d'
p783
F0.430285
sS'7c6c'
p784
F0.456395
sS'7c6d'
p785
F0.421595
sS'3d9c'
p786
F0.39989
sS'7d9d'
p787
F0.49129
sS'9hks'
p788
F0.57726
sS'jc6d'
p789
F0.47684
sS'qd4c'
p790
F0.489865
sS'7d9s'
p791
F0.463895
sS'7c6s'
p792
F0.42268
sS'3d9s'
p793
F0.40043
sS'qd4h'
p794
F0.48876
sS'9c7h'
p795
F0.465035
sS'qh4h'
p796
F0.520095
sS'kd4s'
p797
F0.52235
sS'qh4c'
p798
F0.490635
sS'9c7c'
p799
F0.49165
sS'9c7d'
p800
F0.460125
sS'qh4d'
p801
F0.489085
sS'kd4d'
p802
F0.548635
sS'kd4c'
p803
F0.52337
sS'qh4s'
p804
F0.49018
sS'9c7s'
p805
F0.461115
sS'3hks'
p806
F0.514225
sS'kd4h'
p807
F0.52161
sS'kh4h'
p808
F0.54808
sS'5das'
p809
F0.577465
sS'kh4c'
p810
F0.524425
sS'kh4d'
p811
F0.521335
sS'5dad'
p812
F0.59833
sS'5dac'
p813
F0.57729
sS'kh4s'
p814
F0.521935
sS'jc6h'
p815
F0.478145
sS'5dah'
p816
F0.57794
sS'5sqs'
p817
F0.52755
sS'5sqh'
p818
F0.501695
sS'5sqc'
p819
F0.50002
sS'jc6s'
p820
F0.47885
sS'5sqd'
p821
F0.50373
sS'5c9c'
p822
F0.45647
sS'4hkc'
p823
F0.52252
sS'4hkd'
p824
F0.52342
sS'5c9d'
p825
F0.425925
sS'js2s'
p826
F0.475855
sS'4hkh'
p827
F0.55053
sS'5c9h'
p828
F0.425635
sS'5c9s'
p829
F0.425335
sS'4hks'
p830
F0.525455
sS'js2h'
p831
F0.444225
sS'js2c'
p832
F0.44572
sS'js2d'
p833
F0.443295
sS'3d7d'
p834
F0.400335
sS'6s4s'
p835
F0.41388
sS'3d7c'
p836
F0.36464
sS'3d7h'
p837
F0.364165
sS'6s4c'
p838
F0.379215
sS'6s4d'
p839
F0.379415
sS'3d7s'
p840
F0.365105
sS'6s4h'
p841
F0.377705
sS'9c9d'
p842
F0.72077
sS'9c9c'
p843
I0
sS'5hkh'
p844
F0.558075
sS'7ckh'
p845
F0.55359
sS'5hkd'
p846
F0.53045
sS'7ckd'
p847
F0.55103
sS'7ckc'
p848
F0.572325
sS'5hkc'
p849
F0.53276
sS'9c9h'
p850
F0.7196
sS'9c9s'
p851
F0.7208
sS'7cks'
p852
F0.55103
sS'5hks'
p853
F0.533445
sS'qhkh'
p854
F0.6363
sS'qhkc'
p855
F0.614535
sS'qhkd'
p856
F0.613805
sS'as8s'
p857
F0.61889
sS'as8h'
p858
F0.59588
sS'as8d'
p859
F0.59864
sS'qhks'
p860
F0.61245
sS'as8c'
p861
F0.60037
sS'5s9s'
p862
F0.45778
sS'8d6s'
p863
F0.433945
sS'6c4c'
p864
F0.41424
sS'6d3d'
p865
F0.39433
sS'6d3c'
p866
F0.36188
sS'6c4d'
p867
F0.381615
sS'tc3h'
p868
F0.425905
sS'6c4h'
p869
F0.37672
sS'tc3d'
p870
F0.426575
sS'tc3c'
p871
F0.45587
sS'6d3h'
p872
F0.359745
sS'5s9c'
p873
F0.42559
sS'8d6c'
p874
F0.430315
sS'6c4s'
p875
F0.38108
sS'qc5h'
p876
F0.498995
sS'6d3s'
p877
F0.36031
sS'8d6d'
p878
F0.46238
sS'5s9d'
p879
F0.427565
sS'8d6h'
p880
F0.432285
sS'5s9h'
p881
F0.425775
sS'tc3s'
p882
F0.42574
sS'7s6s'
p883
F0.45531
sS'qckc'
p884
F0.632945
sS'7s6h'
p885
F0.42314
sS'3sks'
p886
F0.54115
sS'qcad'
p887
F0.644425
sS'7s6c'
p888
F0.42509
sS'7s6d'
p889
F0.42307
sS'3h7h'
p890
F0.39929
sS'2h5h'
p891
F0.37659
sS'ac8h'
p892
F0.600555
sS'th7s'
p893
F0.47818
sS'as2c'
p894
F0.54857
sS'ac8d'
p895
F0.59858
sS'2h5c'
p896
F0.344075
sS'3h7c'
p897
F0.36932
sS'3h7d'
p898
F0.3659
sS'2h5d'
p899
F0.34274
sS'ac8c'
p900
F0.61963
sS'9s7h'
p901
F0.46544
sS'ah9h'
p902
F0.62892
sS'2h5s'
p903
F0.34229
sS'3h7s'
p904
F0.36687
sS'9s7d'
p905
F0.461235
sS'ac8s'
p906
F0.6005
sS'as2d'
p907
F0.548025
sS'5d8s'
p908
F0.4125
sS'qcah'
p909
F0.64724
sS'5d8h'
p910
F0.41556
sS'5d8d'
p911
F0.44304
sS'5d8c'
p912
F0.412415
sS'8h6d'
p913
F0.43291
sS'2d3h'
p914
F0.32157
sS'8h6c'
p915
F0.43232
sS'2d3c'
p916
F0.322305
sS'6h7h'
p917
F0.453435
sS'ts3s'
p918
F0.45595
sS'8h6h'
p919
F0.46368
sS'2d3d'
p920
F0.36155
sS'qc5s'
p921
F0.499065
sS'th4h'
p922
F0.462765
sS'8h6s'
p923
F0.431775
sS'ts3h'
p924
F0.4268
sS'2d3s'
p925
F0.32313
sS'ts3d'
p926
F0.426535
sS'ts3c'
p927
F0.426075
sS'th4c'
p928
F0.43354
sS'3dad'
p929
F0.582515
sS'4hah'
p930
F0.590185
sS'3dac'
p931
F0.56021
sS'3dah'
p932
F0.5594
sS'td4c'
p933
F0.436375
sS'td4d'
p934
F0.464335
sS'3das'
p935
F0.5584
sS'td4h'
p936
F0.43562
sS'3skd'
p937
F0.51429
sS'jhqh'
p938
F0.602355
sS'8sth'
p939
F0.49677
sS'8hac'
p940
F0.596125
sS'8stc'
p941
F0.49602
sS'8std'
p942
F0.49716
sS'8has'
p943
F0.598595
sS'jhqd'
p944
F0.582255
sS'8sts'
p945
F0.52115
sS'jd6c'
p946
F0.48195
sS'asqd'
p947
F0.6421
sS'9s9s'
p948
I0
sS'4c5s'
p949
F0.38098
sS'9s9d'
p950
F0.72184
sS'4c5h'
p951
F0.381135
sS'jhqc'
p952
F0.580985
sS'4c5d'
p953
F0.378945
sS'ah9s'
p954
F0.60904
sS'4c5c'
p955
F0.412535
sS'adqh'
p956
F0.64134
sS'9d9s'
p957
F0.72027
sS'adqd'
p958
F0.662155
sS'9d9h'
p959
F0.719295
sS'3c8h'
p960
F0.37431
sS'9d9c'
p961
F0.720405
sS'9d9d'
p962
I0
sS'3c8s'
p963
F0.375225
sS'thas'
p964
F0.628275
sS'4s5h'
p965
F0.38097
sS'jc8h'
p966
F0.51245
sS'4s5d'
p967
F0.38058
sS'4s5c'
p968
F0.37846
sS'thac'
p969
F0.62711
sS'8cth'
p970
F0.49734
sS'thad'
p971
F0.627995
sS'8ctc'
p972
F0.521025
sS'thah'
p973
F0.646375
sS'4s5s'
p974
F0.414395
sS'acqs'
p975
F0.645995
sS'2sts'
p976
F0.447625
sS'2std'
p977
F0.415675
sS'acqd'
p978
F0.644495
sS'acqc'
p979
F0.660915
sS'acjc'
p980
F0.65357
sS'2stc'
p981
F0.417555
sS'2sth'
p982
F0.415725
sS'acqh'
p983
F0.64375
sS'5hjh'
p984
F0.498405
sS'jd8c'
p985
F0.515855
sS'9sqh'
p986
F0.55444
sS'5hjc'
p987
F0.472465
sS'9sqd'
p988
F0.55582
sS'9sqc'
p989
F0.55291
sS'5hjd'
p990
F0.470735
sS'kd7h'
p991
F0.55204
sS'jc8d'
p992
F0.512425
sS'5hjs'
p993
F0.470585
sS'9sqs'
p994
F0.573265
sS'kh9c'
p995
F0.57768
sS'tckd'
p996
F0.598225
sS'tckc'
p997
F0.61982
sS'qhjs'
p998
F0.58157
sS'td7h'
p999
F0.47715
sS'kh9h'
p1000
F0.600745
sS'as9s'
p1001
F0.626715
sS'kc8s'
p1002
F0.56112
sS'tckh'
p1003
F0.596505
sS'qhjd'
p1004
F0.57767
sS'tsas'
p1005
F0.64785
sS'tcks'
p1006
F0.59897
sS'qhjc'
p1007
F0.58088
sS'as9h'
p1008
F0.60665
sS'kc8d'
p1009
F0.56043
sS'as9d'
p1010
F0.607555
sS'as9c'
p1011
F0.608685
sS'qhjh'
p1012
F0.60441
sS'6cac'
p1013
F0.599635
sS'7c7h'
p1014
F0.660465
sS'9hjh'
p1015
F0.55933
sS'6cad'
p1016
F0.577275
sS'7c7c'
p1017
I0
sS'9hjd'
p1018
F0.53526
sS'3d8c'
p1019
F0.375835
sS'3d8d'
p1020
F0.40478
sS'9hjc'
p1021
F0.534845
sS'7c7d'
p1022
F0.664805
sS'7d8d'
p1023
F0.479965
sS'7d8c'
p1024
F0.447725
sS'7c7s'
p1025
F0.663375
sS'3d8s'
p1026
F0.374045
sS'7d8h'
p1027
F0.449365
sS'9hjs'
p1028
F0.53486
sS'9h4c'
p1029
F0.40695
sS'kd3s'
p1030
F0.515285
sS'qh7s'
p1031
F0.516215
sS'ahks'
p1032
F0.65521
sS'qh7d'
p1033
F0.51486
sS'kd3c'
p1034
F0.51457
sS'kd3d'
p1035
F0.538385
sS'qh7c'
p1036
F0.51816
sS'kd3h'
p1037
F0.51302
sS'ahkc'
p1038
F0.655745
sS'ks8d'
p1039
F0.563825
sS'qh7h'
p1040
F0.54023
sS'3h6h'
p1041
F0.392845
sS'ac9h'
p1042
F0.608105
sS'3h6c'
p1043
F0.35852
sS'qdad'
p1044
F0.662105
sS'ac9d'
p1045
F0.60797
sS'9cqs'
p1046
F0.552425
sS'3h6d'
p1047
F0.36157
sS'9cqh'
p1048
F0.55287
sS'3h6s'
p1049
F0.36084
sS'9cqd'
p1050
F0.552095
sS'9cqc'
p1051
F0.57676
sS'9h4h'
p1052
F0.438495
sS'tc5h'
p1053
F0.44077
sS'thqc'
p1054
F0.571915
sS'ksqs'
p1055
F0.63421
sS'kc6s'
p1056
F0.54268
sS'kc6d'
p1057
F0.54177
sS'ksqc'
p1058
F0.614395
sS'ksqd'
p1059
F0.617665
sS'kc6c'
p1060
F0.56747
sS'ksqh'
p1061
F0.614055
sS'kc6h'
p1062
F0.54344
sS'3d6d'
p1063
F0.39444
sS'3d6c'
p1064
F0.361975
sS'3d6h'
p1065
F0.36092
sS'3d6s'
p1066
F0.360195
sS'tc5c'
p1067
F0.473715
sS'2skc'
p1068
F0.50411
sS'2h8c'
p1069
F0.36713
sS'kcqc'
p1070
F0.635
sS'9dqs'
p1071
F0.554315
sS'kcqd'
p1072
F0.61583
sS'2h8d'
p1073
F0.36728
sS'kcqh'
p1074
F0.61736
sS'2h8h'
p1075
F0.402165
sS'4c4s'
p1076
F0.569585
sS'ks8c'
p1077
F0.562815
sS'2h8s'
p1078
F0.36873
sS'kcqs'
p1079
F0.615725
sS'9dqc'
p1080
F0.555025
sS'9dqd'
p1081
F0.5777
sS'4c4h'
p1082
F0.573045
sS'9dqh'
p1083
F0.554885
sS'4c4d'
p1084
F0.569305
sS'4c4c'
p1085
I0
sS'ks8s'
p1086
F0.585055
sS'tc2h'
p1087
F0.41803
sS'qckd'
p1088
F0.616385
sS'5cas'
p1089
F0.5773
sS'tc2c'
p1090
F0.450305
sS'tc2d'
p1091
F0.417355
sS'8d7s'
p1092
F0.45136
sS'5cah'
p1093
F0.576355
sS'8d7h'
p1094
F0.448505
sS'5cac'
p1095
F0.598535
sS'8d7d'
p1096
F0.478045
sS'tc2s'
p1097
F0.41625
sS'8d7c'
p1098
F0.45242
sS'5cad'
p1099
F0.5772
sS'5c4d'
p1100
F0.3814
sS'5h3d'
p1101
F0.362245
sS'qh5s'
p1102
F0.503075
sS'5h3c'
p1103
F0.362845
sS'5c4c'
p1104
F0.41679
sS'7s7s'
p1105
I0
sS'5c4h'
p1106
F0.37977
sS'5h3h'
p1107
F0.394875
sS'7s7h'
p1108
F0.660145
sS'5h3s'
p1109
F0.361775
sS'5c4s'
p1110
F0.38255
sS'7s7c'
p1111
F0.66138
sS'7s7d'
p1112
F0.662215
sS'9hkd'
p1113
F0.57847
sS'4s4h'
p1114
F0.5718
sS'4s4d'
p1115
F0.56997
sS'4s4c'
p1116
F0.569545
sS'6d5s'
p1117
F0.399435
sS'4s4s'
p1118
I0
sS'8dad'
p1119
F0.618295
sS'jhah'
p1120
F0.653605
sS'7cqd'
p1121
F0.51635
sS'ks6d'
p1122
F0.542215
sS'8h7c'
p1123
F0.450925
sS'8h7d'
p1124
F0.45012
sS'ks6c'
p1125
F0.54211
sS'8h7h'
p1126
F0.478165
sS'ts2s'
p1127
F0.447615
sS'th5s'
p1128
F0.44232
sS'jd8h'
p1129
F0.515795
sS'2h4c'
p1130
F0.33413
sS'ts2h'
p1131
F0.41495
sS'8h7s'
p1132
F0.449345
sS'7cqc'
p1133
F0.544735
sS'th5h'
p1134
F0.471095
sS'ts2c'
p1135
F0.418115
sS'th5d'
p1136
F0.441485
sS'th5c'
p1137
F0.442555
sS'ts2d'
p1138
F0.417315
sS'td5s'
p1139
F0.44374
sS'4djc'
p1140
F0.46101
sS'4djd'
p1141
F0.488845
sS'5s4s'
p1142
F0.41375
sS'khqs'
p1143
F0.61292
sS'4djh'
p1144
F0.46144
sS'5s4d'
p1145
F0.381065
sS'4djs'
p1146
F0.46347
sS'khqh'
p1147
F0.635995
sS'4c3d'
p1148
F0.350305
sS'5s4c'
p1149
F0.37879
sS'khqc'
p1150
F0.61559
sS'9hkh'
p1151
F0.59967
sS'td5h'
p1152
F0.44174
sS'5s4h'
p1153
F0.38283
sS'khqd'
p1154
F0.616525
sS'ahjd'
p1155
F0.635105
sS'7c4s'
p1156
F0.38346
sS'ahjc'
p1157
F0.634545
sS'ahjh'
p1158
F0.652305
sS'qd6s'
p1159
F0.51139
sS'7c4d'
p1160
F0.38694
sS'7c4c'
p1161
F0.41888
sS'ahjs'
p1162
F0.633705
sS'6d5h'
p1163
F0.400795
sS'qd6d'
p1164
F0.53674
sS'7c4h'
p1165
F0.38561
sS'kd2s'
p1166
F0.502425
sS'qh6s'
p1167
F0.511755
sS'ac2c'
p1168
F0.573545
sS'9s6c'
p1169
F0.44589
sS'kd2c'
p1170
F0.504175
sS'qh6c'
p1171
F0.51238
sS'jhas'
p1172
F0.634195
sS'kd2d'
p1173
F0.532175
sS'qh6h'
p1174
F0.535755
sS'kd2h'
p1175
F0.504665
sS'6djh'
p1176
F0.47943
sS'2sah'
p1177
F0.54864
sS'6djd'
p1178
F0.507195
sS'2sad'
p1179
F0.550195
sS'2sac'
p1180
F0.55043
sS'6djc'
p1181
F0.477825
sS'khts'
p1182
F0.595445
sS'9d8h'
p1183
F0.479865
sS'9d8c'
p1184
F0.47996
sS'2sas'
p1185
F0.57516
sS'6djs'
p1186
F0.477375
sS'2ctd'
p1187
F0.42238
sS'2ctc'
p1188
F0.448505
sS'jh6s'
p1189
F0.478375
sS'2cth'
p1190
F0.417405
sS'jh6h'
p1191
F0.50662
sS'2cts'
p1192
F0.416295
sS'jh6c'
p1193
F0.47889
sS'jh6d'
p1194
F0.47986
sS'ah3s'
p1195
F0.556195
sS'kc7s'
p1196
F0.554855
sS'ah3c'
p1197
F0.55874
sS'kc7d'
p1198
F0.552755
sS'kc7c'
p1199
F0.574705
sS'ah3d'
p1200
F0.558465
sS'ah3h'
p1201
F0.5815
sS'kc7h'
p1202
F0.55335
sS'3d5c'
p1203
F0.360405
sS'ad9c'
p1204
F0.607165
sS'ad9d'
p1205
F0.62843
sS'3d5d'
p1206
F0.393735
sS'ad9h'
p1207
F0.60823
sS'qsjs'
p1208
F0.602425
sS'3d5h'
p1209
F0.362065
sS'tcts'
p1210
F0.75116
sS'3d5s'
p1211
F0.36048
sS'qsjh'
p1212
F0.57984
sS'ad9s'
p1213
F0.607115
sS'tcth'
p1214
F0.75251
sS'4dtd'
p1215
F0.467585
sS'tctd'
p1216
F0.75082
sS'tctc'
p1217
I0
sS'qsjd'
p1218
F0.580735
sS'2djs'
p1219
F0.44566
sS'kdqs'
p1220
F0.614685
sS'4dth'
p1221
F0.43554
sS'2djc'
p1222
F0.441035
sS'2djd'
p1223
F0.472715
sS'2djh'
p1224
F0.442295
sS'jdah'
p1225
F0.633615
sS'tcjc'
p1226
F0.57355
sS'tcjd'
p1227
F0.553455
sS'9skd'
p1228
F0.577705
sS'tcjh'
p1229
F0.555035
sS'jdac'
p1230
F0.63469
sS'jdad'
p1231
F0.652385
sS'kh8c'
p1232
F0.56201
sS'kc9h'
p1233
F0.578
sS'tcjs'
p1234
F0.551
sS'jdas'
p1235
F0.63617
sS'kc9d'
p1236
F0.578465
sS'kh8s'
p1237
F0.562845
sS'7s4d'
p1238
F0.38572
sS'7s4c'
p1239
F0.38665
sS'tsth'
p1240
F0.750015
sS'tstd'
p1241
F0.74829
sS'tstc'
p1242
F0.7521
sS'7s4h'
p1243
F0.388245
sS'7s4s'
p1244
F0.420565
sS'tsts'
p1245
I0
sS'qhqd'
p1246
F0.7993
sS'5h2c'
p1247
F0.34188
sS'5c5d'
p1248
F0.602815
sS'5c5c'
p1249
I0
sS'5h2d'
p1250
F0.342145
sS'qhqc'
p1251
F0.79744
sS'5h2h'
p1252
F0.378685
sS'qhqh'
p1253
I0
sS'5c5h'
p1254
F0.60331
sS'5h2s'
p1255
F0.342955
sS'8hqd'
p1256
F0.536655
sS'5c5s'
p1257
F0.603305
sS'qhqs'
p1258
F0.79854
sS'8hqh'
p1259
F0.559545
sS'asas'
p1260
I0
sS'3h5s'
p1261
F0.36343
sS'jhqs'
p1262
F0.58037
sS'9djs'
p1263
F0.52858
sS'3h5d'
p1264
F0.363405
sS'asad'
p1265
F0.851845
sS'asac'
p1266
F0.85291
sS'3h5c'
p1267
F0.36261
sS'3h5h'
p1268
F0.398485
sS'asah'
p1269
F0.851185
sS'3sts'
p1270
F0.458905
sS'9d3c'
p1271
F0.39937
sS'3sth'
p1272
F0.42717
sS'3stc'
p1273
F0.426705
sS'9skc'
p1274
F0.5778
sS'3std'
p1275
F0.42519
sS'jd9c'
p1276
F0.52962
sS'ks7d'
p1277
F0.552625
sS'8h8h'
p1278
I0
sS'jd9d'
p1279
F0.55554
sS'8dkh'
p1280
F0.561765
sS'8h8d'
p1281
F0.693135
sS'th6s'
p1282
F0.45834
sS'jhtd'
p1283
F0.54924
sS'8h8c'
p1284
F0.69384
sS'th6h'
p1285
F0.490925
sS'ks7s'
p1286
F0.576365
sS'th6c'
p1287
F0.46074
sS'th6d'
p1288
F0.462225
sS'8h8s'
p1289
F0.694775
sS'6sqc'
p1290
F0.51243
sS'js3c'
p1291
F0.450945
sS'5s5s'
p1292
I0
sS'4dkh'
p1293
F0.523595
sS'6sqd'
p1294
F0.51293
sS'4dkd'
p1295
F0.547555
sS'6sqh'
p1296
F0.511555
sS'9djc'
p1297
F0.534255
sS'4dkc'
p1298
F0.52286
sS'6sqs'
p1299
F0.535995
sS'5s5d'
p1300
F0.60284
sS'5s5c'
p1301
F0.60357
sS'td6h'
p1302
F0.46158
sS'td6d'
p1303
F0.48913
sS'td6c'
p1304
F0.45691
sS'4dks'
p1305
F0.52582
sS'5s5h'
p1306
F0.602945
sS'8dkd'
p1307
F0.581235
sS'kc5s'
p1308
F0.532745
sS'ks9h'
p1309
F0.57651
sS'2h9h'
p1310
F0.42423
sS'4c7s'
p1311
F0.386005
sS'ks9c'
p1312
F0.579935
sS'ks9d'
p1313
F0.578615
sS'2h9c'
p1314
F0.39185
sS'4c7h'
p1315
F0.387445
sS'4c7c'
p1316
F0.418225
sS'ks9s'
p1317
F0.599835
sS'4c7d'
p1318
F0.383095
sS'kc5h'
p1319
F0.533845
sS'6dkh'
p1320
F0.544165
sS'6dkd'
p1321
F0.566215
sS'6dkc'
p1322
F0.54456
sS'jd8d'
p1323
F0.54297
sS'7dks'
p1324
F0.552785
sS'7dkh'
p1325
F0.551735
sS'kc5d'
p1326
F0.53288
sS'7dkd'
p1327
F0.57604
sS'6dks'
p1328
F0.54209
sS'8hah'
p1329
F0.616735
sS'7dkc'
p1330
F0.553735
sS'6cqs'
p1331
F0.512685
sS'jh7s'
p1332
F0.49851
sS'ah5d'
p1333
F0.57612
sS'kc3s'
p1334
F0.513235
sS'6cqc'
p1335
F0.536465
sS'jh7h'
p1336
F0.521565
sS'kc5c'
p1337
F0.55987
sS'6cqd'
p1338
F0.50924
sS'jh7c'
p1339
F0.49584
sS'6cqh'
p1340
F0.514015
sS'jh7d'
p1341
F0.498155
sS'4h8h'
p1342
F0.425655
sS'qs2s'
p1343
F0.50187
sS'4s7h'
p1344
F0.3826
sS'td8s'
p1345
F0.497905
sS'4s7c'
p1346
F0.384535
sS'4h8c'
p1347
F0.3962
sS'4h8d'
p1348
F0.394845
sS'4s7d'
p1349
F0.384695
sS'td8d'
p1350
F0.52271
sS'qs2c'
p1351
F0.474505
sS'qs2d'
p1352
F0.473245
sS'td8c'
p1353
F0.49805
sS'kc2c'
p1354
F0.532785
sS'4s7s'
p1355
F0.416185
sS'qs2h'
p1356
F0.472975
sS'4h8s'
p1357
F0.39302
sS'td8h'
p1358
F0.495455
sS'adas'
p1359
F0.85366
sS'adah'
p1360
F0.85161
sS'adac'
p1361
F0.850575
sS'adad'
p1362
I0
sS'jd8s'
p1363
F0.515435
sS'2dks'
p1364
F0.505885
sS'2hqd'
p1365
F0.47228
sS'9h3h'
p1366
F0.43648
sS'5hts'
p1367
F0.44363
sS'ksad'
p1368
F0.65461
sS'2hqc'
p1369
F0.47514
sS'9h3c'
p1370
F0.40035
sS'ks6s'
p1371
F0.566185
sS'2hqh'
p1372
F0.501695
sS'9h3d'
p1373
F0.39986
sS'2dkc'
p1374
F0.505025
sS'ksas'
p1375
F0.670245
sS'5htd'
p1376
F0.4431
sS'5htc'
p1377
F0.44248
sS'2hqs'
p1378
F0.472125
sS'2dkd'
p1379
F0.534405
sS'9h3s'
p1380
F0.401135
sS'2dkh'
p1381
F0.504725
sS'5hth'
p1382
F0.47302
sS'5dth'
p1383
F0.4427
sS'qcks'
p1384
F0.614965
sS'5dtc'
p1385
F0.44154
sS'5dtd'
p1386
F0.471295
sS'5dts'
p1387
F0.440695
sS'khtc'
p1388
F0.59647
sS'7c5s'
p1389
F0.40656
sS'khtd'
p1390
F0.59524
sS'7c5c'
p1391
F0.43545
sS'7c5d'
p1392
F0.405055
sS'7c5h'
p1393
F0.40347
sS'jd5d'
p1394
F0.50046
sS'acjs'
p1395
F0.63672
sS'qh9s'
p1396
F0.552965
sS'qh9h'
p1397
F0.579985
sS'qh9d'
p1398
F0.554485
sS'qh9c'
p1399
F0.552385
sS'qh2h'
p1400
F0.499545
sS'3h4s'
p1401
F0.35248
sS'jd5c'
p1402
F0.472355
sS'3h4c'
p1403
F0.35007
sS'3h4d'
p1404
F0.3529
sS'3h4h'
p1405
F0.38628
sS'6hac'
p1406
F0.57542
sS'td5c'
p1407
F0.4432
sS'8c8s'
p1408
F0.69136
sS'6had'
p1409
F0.57986
sS'jhac'
p1410
F0.63476
sS'qc2c'
p1411
F0.501055
sS'6h8s'
p1412
F0.432475
sS'8djh'
p1413
F0.515165
sS'9cah'
p1414
F0.6052
sS'8djd'
p1415
F0.53931
sS'9cad'
p1416
F0.6085
sS'9cac'
p1417
F0.627975
sS'8djc'
p1418
F0.51389
sS'ah2s'
p1419
F0.549325
sS'qc2s'
p1420
F0.470865
sS'6h8d'
p1421
F0.433565
sS'6h8c'
p1422
F0.43407
sS'qsks'
p1423
F0.632855
sS'ah2d'
p1424
F0.551315
sS'kc4h'
p1425
F0.52335
sS'9cas'
p1426
F0.608575
sS'8djs'
p1427
F0.515035
sS'6h8h'
p1428
F0.46588
sS'ad8c'
p1429
F0.598535
sS'2s9d'
p1430
F0.391385
sS'2s9c'
p1431
F0.389835
sS'ad8d'
p1432
F0.617975
sS'6s9s'
p1433
F0.475285
sS'ad8h'
p1434
F0.59792
sS'tdas'
p1435
F0.6251
sS'2s9h'
p1436
F0.3912
sS'ad8s'
p1437
F0.59791
sS'6s9h'
p1438
F0.444625
sS'2s9s'
p1439
F0.42355
sS'tdah'
p1440
F0.626755
sS'6s9c'
p1441
F0.44407
sS'tdad'
p1442
F0.64656
sS'tdac'
p1443
F0.62773
sS'3d4s'
p1444
F0.34896
sS'4c6d'
p1445
F0.38215
sS'2c9s'
p1446
F0.39144
sS'4c6c'
p1447
F0.41279
sS'4c6h'
p1448
F0.38176
sS'7hts'
p1449
F0.48198
sS'2c9d'
p1450
F0.38938
sS'2c9c'
p1451
F0.42264
sS'4c6s'
p1452
F0.379015
sS'7htd'
p1453
F0.47925
sS'2c9h'
p1454
F0.389175
sS'asth'
p1455
F0.627255
sS'khah'
p1456
F0.671225
sS'khac'
p1457
F0.65143
sS'astc'
p1458
F0.62756
sS'astd'
p1459
F0.628055
sS'khad'
p1460
F0.651695
sS'khas'
p1461
F0.65291
sS'asts'
p1462
F0.646085
sS'6d6h'
p1463
F0.632375
sS'6c9h'
p1464
F0.44698
sS'7s5d'
p1465
F0.407255
sS'qh3c'
p1466
F0.48108
sS'6c9c'
p1467
F0.4748
sS'6d6c'
p1468
F0.63253
sS'6d6d'
p1469
I0
sS'6c9d'
p1470
F0.444175
sS'7s5s'
p1471
F0.43525
sS'6c9s'
p1472
F0.44752
sS'6d6s'
p1473
F0.63182
sS'5c6c'
p1474
F0.431535
sS'3cth'
p1475
F0.422005
sS'qh3d'
p1476
F0.483255
sS'5c6d'
p1477
F0.398595
sS'3ctc'
p1478
F0.45317
sS'5c6h'
p1479
F0.398095
sS'3ctd'
p1480
F0.42593
sS'5c6s'
p1481
F0.39825
sS'3cts'
p1482
F0.424515
sS'qd6h'
p1483
F0.511125
sS'7dtc'
p1484
F0.47816
sS'4h9h'
p1485
F0.440915
sS'td9s'
p1486
F0.51493
sS'7dtd'
p1487
F0.505475
sS'4s6s'
p1488
F0.413505
sS'4h9c'
p1489
F0.40914
sS'7dth'
p1490
F0.47778
sS'qs3s'
p1491
F0.510495
sS'4h9d'
p1492
F0.406135
sS'8c5d'
p1493
F0.41356
sS'4s6d'
p1494
F0.380065
sS'7dts'
p1495
F0.4776
sS'td9d'
p1496
F0.54157
sS'td9c'
p1497
F0.513665
sS'qs3h'
p1498
F0.482535
sS'4s6c'
p1499
F0.3773
sS'4h9s'
p1500
F0.40573
sS'qs3d'
p1501
F0.47958
sS'4s6h'
p1502
F0.379245
sS'qs3c'
p1503
F0.48227
sS'td9h'
p1504
F0.517915
sS'th7d'
p1505
F0.478635
sS'th7c'
p1506
F0.479275
sS'qh3s'
p1507
F0.483355
sS'acts'
p1508
F0.62921
sS'2sqs'
p1509
F0.498335
sS'acth'
p1510
F0.62722
sS'qd6c'
p1511
F0.509575
sS'2sqh'
p1512
F0.47119
sS'2sqd'
p1513
F0.471465
sS'actc'
p1514
F0.64818
sS'actd'
p1515
F0.627925
sS'2sqc'
p1516
F0.472835
sS'ks4c'
p1517
F0.52182
sS'jd6h'
p1518
F0.478575
sS'ks4d'
p1519
F0.523585
sS'8h9h'
p1520
F0.507935
sS'jd6d'
p1521
F0.50633
sS'ks4h'
p1522
F0.524465
sS'8h9d'
p1523
F0.480645
sS'8h9c'
p1524
F0.479445
sS'4c3c'
p1525
F0.38445
sS'ks4s'
p1526
F0.54906
sS'8h9s'
p1527
F0.481295
sS'jd6s'
p1528
F0.47853
sS'5s6s'
p1529
F0.42955
sS'tsac'
p1530
F0.62842
sS'tsad'
p1531
F0.628835
sS'tsah'
p1532
F0.62679
sS'td7s'
p1533
F0.47991
sS'qcqc'
p1534
I0
sS'5s6c'
p1535
F0.398205
sS'8d5d'
p1536
F0.44643
sS'qd7c'
p1537
F0.516255
sS'5s6d'
p1538
F0.39786
sS'8d5c'
p1539
F0.414605
sS'5s6h'
p1540
F0.39893
sS'td7d'
p1541
F0.50754
sS'qd7s'
p1542
F0.51791
sS'6sas'
p1543
F0.598235
sS'2h6c'
p1544
F0.341625
sS'3h2c'
p1545
F0.322415
sS'8c5c'
p1546
F0.44531
sS'2dtd'
p1547
F0.45125
sS'8cks'
p1548
F0.55732
sS'qh8s'
p1549
F0.538595
sS'8ckh'
p1550
F0.56007
sS'qh8h'
p1551
F0.56024
sS'8ckc'
p1552
F0.581395
sS'qh8d'
p1553
F0.53643
sS'qh8c'
p1554
F0.535395
sS'qdkd'
p1555
F0.63424
sS'8ckd'
p1556
F0.55816
sS'qh6d'
p1557
F0.514145
sS'jh4d'
p1558
F0.46268
sS'jh4c'
p1559
F0.463635
sS'jdqs'
p1560
F0.58166
sS'7djs'
p1561
F0.495845
sS'jh4h'
p1562
F0.49089
sS'jdqh'
p1563
F0.582755
sS'jh4s'
p1564
F0.46528
sS'7djh'
p1565
F0.49612
sS'jdqc'
p1566
F0.580075
sS'7djd'
p1567
F0.523435
sS'7djc'
p1568
F0.495875
sS'jdqd'
p1569
F0.60451
sS'2dts'
p1570
F0.41577
sS'2s7h'
p1571
F0.34849
sS'9s4c'
p1572
F0.40603
sS'9s4d'
p1573
F0.40653
sS'6s8d'
p1574
F0.43044
sS'6h9s'
p1575
F0.448855
sS'6c8c'
p1576
F0.46355
sS'6s8c'
p1577
F0.43253
sS'qhas'
p1578
F0.645725
sS'qc3d'
p1579
F0.48181
sS'8dkc'
p1580
F0.560395
sS'ah5s'
p1581
F0.57739
sS'6s8h'
p1582
F0.434485
sS'qc3c'
p1583
F0.51033
sS'qhad'
p1584
F0.64476
sS'6h9c'
p1585
F0.449115
sS'6h9d'
p1586
F0.44767
sS'6s8s'
p1587
F0.46559
sS'qhac'
p1588
F0.64434
sS'6h9h'
p1589
F0.47589
sS'8dks'
p1590
F0.55936
sS'ah5c'
p1591
F0.57484
sS'qhah'
p1592
F0.66156
sS'qc3s'
p1593
F0.482325
sS'thkd'
p1594
F0.598145
sS'3d3h'
p1595
F0.53743
sS'2s8c'
p1596
F0.366325
sS'2s8d'
p1597
F0.367135
sS'7d3s'
p1598
F0.36589
sS'2s8h'
p1599
F0.36732
sS'3d3c'
p1600
F0.537305
sS'3d3d'
p1601
I0
sS'qdks'
p1602
F0.61426
sS'7d3d'
p1603
F0.40085
sS'9d8s'
p1604
F0.47934
sS'2s8s'
p1605
F0.403335
sS'7d3c'
p1606
F0.36758
sS'3d3s'
p1607
F0.53947
sS'7d3h'
p1608
F0.366195
sS'9sts'
p1609
F0.53776
sS'td6s'
p1610
F0.46272
sS'9h2s'
p1611
F0.39335
sS'jc3h'
p1612
F0.45244
sS'9h2d'
p1613
F0.391725
sS'9stc'
p1614
F0.51382
sS'9std'
p1615
F0.513425
sS'9h2c'
p1616
F0.391505
sS'9sth'
p1617
F0.512555
sS'9h2h'
p1618
F0.42366
sS'thks'
p1619
F0.598045
sS'qcqs'
p1620
F0.800395
sS'2dtc'
p1621
F0.41623
sS'6d7h'
p1622
F0.425185
sS'6c8s'
p1623
F0.434885
sS'6d7c'
p1624
F0.42375
sS'2dth'
p1625
F0.417135
sS'qdkc'
p1626
F0.61638
sS'6d7d'
p1627
F0.45476
sS'6c8d'
p1628
F0.433355
sS'6sad'
p1629
F0.57527
sS'6d7s'
p1630
F0.42266
sS'6sah'
p1631
F0.57619
sS'6c8h'
p1632
F0.431735
sS'4hqc'
p1633
F0.491155
sS'9ctc'
p1634
F0.53967
sS'9ctd'
p1635
F0.51516
sS'5c7h'
p1636
F0.40586
sS'4hqd'
p1637
F0.489615
sS'9cth'
p1638
F0.514815
sS'5c7d'
p1639
F0.405045
sS'th4d'
p1640
F0.43753
sS'4hqh'
p1641
F0.514425
sS'jd5h'
p1642
F0.475925
sS'5c7c'
p1643
F0.43811
sS'4hqs'
p1644
F0.49013
sS'9cts'
p1645
F0.51625
sS'9d8d'
p1646
F0.50933
sS'5c7s'
p1647
F0.40574
sS'ad5d'
p1648
F0.5991
sS'7sah'
p1649
F0.590035
sS'ad5c'
p1650
F0.5775
sS'7sad'
p1651
F0.58838
sS'ad5h'
p1652
F0.579395
sS'7sac'
p1653
F0.591725
sS'4skd'
p1654
F0.52489
sS'4skc'
p1655
F0.525675
sS'ad5s'
p1656
F0.577965
sS'4skh'
p1657
F0.525215
sS'5hah'
p1658
F0.59568
sS'5hac'
p1659
F0.576445
sS'5had'
p1660
F0.577555
sS'th2c'
p1661
F0.41617
sS'5has'
p1662
F0.5774
sS'kcjc'
p1663
F0.62554
sS'kcjd'
p1664
F0.60355
sS'ks5h'
p1665
F0.53358
sS'jd7h'
p1666
F0.49587
sS'kcjh'
p1667
F0.605145
sS'ks5d'
p1668
F0.532295
sS'jd7d'
p1669
F0.52357
sS'jd7c'
p1670
F0.49423
sS'ks5c'
p1671
F0.532065
sS'kcjs'
p1672
F0.60424
sS'jd7s'
p1673
F0.49425
sS'ks5s'
p1674
F0.558585
sS'4sks'
p1675
F0.54693
sS'tc9h'
p1676
F0.516995
sS'tc9c'
p1677
F0.54004
sS'tc9d'
p1678
F0.51505
sS'5s7s'
p1679
F0.436045
sS'5s7h'
p1680
F0.40588
sS'5s7d'
p1681
F0.40959
sS'tc9s'
p1682
F0.51541
sS'jc7h'
p1683
F0.493285
sS'5s7c'
p1684
F0.40521
sS'8c3s'
p1685
F0.372265
sS'2c8s'
p1686
F0.366075
sS'8c3c'
p1687
F0.40753
sS'2c8c'
p1688
F0.402865
sS'2c8d'
p1689
F0.36882
sS'8c3d'
p1690
F0.37566
sS'2c8h'
p1691
F0.36982
sS'8c3h'
p1692
F0.377625
sS'qs6c'
p1693
F0.511325
sS'8d2d'
p1694
F0.403415
sS'8d2c'
p1695
F0.368525
sS'8d2h'
p1696
F0.36793
sS'8d2s'
p1697
F0.36824
sS'jh5c'
p1698
F0.470775
sS'jh5d'
p1699
F0.475375
sS'jh5h'
p1700
F0.500275
sS'jh5s'
p1701
F0.474145
sS'js3d'
p1702
F0.452535
sS'6hqh'
p1703
F0.5377
sS'2cqh'
p1704
F0.47331
sS'ahkd'
p1705
F0.656595
sS'2cqd'
p1706
F0.472655
sS'ts9s'
p1707
F0.53943
sS'6hqd'
p1708
F0.51129
sS'ts9h'
p1709
F0.51302
sS'7sas'
p1710
F0.61042
sS'6hqs'
p1711
F0.50742
sS'ts9c'
p1712
F0.514665
sS'ts9d'
p1713
F0.511855
sS'2cqs'
p1714
F0.471855
sS'qs6s'
p1715
F0.53702
sS'qs4s'
p1716
F0.51875
sS'qs4h'
p1717
F0.493045
sS'qs4c'
p1718
F0.49021
sS'qs4d'
p1719
F0.489935
sS'4d2h'
p1720
F0.33227
sS'7has'
p1721
F0.58823
sS'4d2c'
p1722
F0.332305
sS'4d2d'
p1723
F0.368665
sS'7had'
p1724
F0.59017
sS'7hac'
p1725
F0.58864
sS'asjc'
p1726
F0.6371
sS'4d2s'
p1727
F0.33151
sS'7hah'
p1728
F0.607585
sS'3hqc'
p1729
F0.48048
sS'9h5s'
p1730
F0.427585
sS'3hqd'
p1731
F0.48367
sS'3hqh'
p1732
F0.51115
sS'3hqs'
p1733
F0.481825
sS'9h5c'
p1734
F0.424565
sS'9h5d'
p1735
F0.42724
sS'tdkc'
p1736
F0.596415
sS'9h5h'
p1737
F0.454145
sS'qd3d'
p1738
F0.508735
sS'jc2s'
p1739
F0.44176
sS'qd3c'
p1740
F0.481905
sS'tdqh'
p1741
F0.57448
sS'tdqd'
p1742
F0.59669
sS'tdqc'
p1743
F0.57454
sS'qc5c'
p1744
F0.52563
sS'qd3s'
p1745
F0.48276
sS'tdqs'
p1746
F0.57324
sS'asqh'
p1747
F0.64226
sS'8s3c'
p1748
F0.374735
sS'jc3c'
p1749
F0.48371
sS'8s3d'
p1750
F0.375575
sS'jc3d'
p1751
F0.45269
sS'8s3h'
p1752
F0.37453
sS'8cjh'
p1753
F0.51476
sS'8s3s'
p1754
F0.410605
sS'8cjs'
p1755
F0.51426
sS'asjs'
p1756
F0.65629
sS'9d5h'
p1757
F0.42712
sS'2has'
p1758
F0.548325
sS'9d5d'
p1759
F0.455295
sS'qc9h'
p1760
F0.554385
sS'9d3h'
p1761
F0.39987
sS'9d5c'
p1762
F0.42617
sS'2had'
p1763
F0.54848
sS'9das'
p1764
F0.61036
sS'tdks'
p1765
F0.59626
sS'2hac'
p1766
F0.549215
sS'2hah'
p1767
F0.5713
sS'9d5s'
p1768
F0.425805
sS'4sjs'
p1769
F0.49257
sS'ad4d'
p1770
F0.592675
sS'ad4c'
p1771
F0.56827
sS'ad4h'
p1772
F0.56716
sS'4sjc'
p1773
F0.45913
sS'ad4s'
p1774
F0.56649
sS'4sjd'
p1775
F0.459005
sS'4sjh'
p1776
F0.461175
sS'jc3s'
p1777
F0.45227
sS'9s9h'
p1778
F0.721485
sS'jdjh'
p1779
F0.77588
sS'tcqc'
p1780
F0.596655
sS'tcqd'
p1781
F0.574615
sS'8dts'
p1782
F0.494625
sS'tcqh'
p1783
F0.571725
sS'jdjc'
p1784
F0.77523
sS'jdjd'
p1785
I0
sS'6h6s'
p1786
F0.632965
sS'8dtd'
p1787
F0.52468
sS'5cqh'
p1788
F0.500825
sS'6h6h'
p1789
I0
sS'ad2s'
p1790
F0.54593
sS'8dtc'
p1791
F0.49757
sS'6h6d'
p1792
F0.631265
sS'jdjs'
p1793
F0.777775
sS'8dth'
p1794
F0.498265
sS'6h6c'
p1795
F0.63213
sS'ahad'
p1796
F0.85293
sS'3d2h'
p1797
F0.321935
sS'7d2s'
p1798
F0.345635
sS'kdts'
p1799
F0.59704
sS'ahac'
p1800
F0.851905
sS'3d2c'
p1801
F0.31931
sS'ahah'
p1802
I0
sS'3d2d'
p1803
F0.36041
sS'8h5s'
p1804
F0.41432
sS'7d2d'
p1805
F0.383745
sS'7d2c'
p1806
F0.346145
sS'ahas'
p1807
F0.851535
sS'3d2s'
p1808
F0.32179
sS'7d2h'
p1809
F0.34905
sS'qc5d'
p1810
F0.50042
sS'8c2s'
p1811
F0.366565
sS'2c7s'
p1812
F0.347045
sS'jcks'
p1813
F0.604255
sS'2c7h'
p1814
F0.345245
sS'8c2h'
p1815
F0.36767
sS'2c7d'
p1816
F0.34644
sS'8c2d'
p1817
F0.369935
sS'6sac'
p1818
F0.577355
sS'8c2c'
p1819
F0.40399
sS'2c7c'
p1820
F0.38261
sS'8d3c'
p1821
F0.375635
sS'8d3d'
p1822
F0.40975
sS'8d3h'
p1823
F0.372935
sS'8d3s'
p1824
F0.37709
sS'8h5h'
p1825
F0.447075
sS'qdjh'
p1826
F0.58001
sS'tsqs'
p1827
F0.59785
sS'6d4s'
p1828
F0.376915
sS'jctd'
p1829
F0.554835
sS'qdjc'
p1830
F0.57671
sS'qdjd'
p1831
F0.603025
sS'jctc'
p1832
F0.57598
sS'5cqs'
p1833
F0.502855
sS'6d4d'
p1834
F0.412825
sS'tsqc'
p1835
F0.573065
sS'tsqd'
p1836
F0.57417
sS'6d4c'
p1837
F0.37756
sS'tsqh'
p1838
F0.577505
sS'th7h'
p1839
F0.507975
sS'qdjs'
p1840
F0.58334
sS'6d4h'
p1841
F0.378925
sS'8hts'
p1842
F0.497435
sS'th2s'
p1843
F0.416815
sS'8hth'
p1844
F0.523335
sS'jckc'
p1845
F0.62754
sS'jckd'
p1846
F0.60826
sS'8htc'
p1847
F0.499225
sS'8htd'
p1848
F0.49535
sS'qs5s'
p1849
F0.52629
sS'jckh'
p1850
F0.606145
sS'qs5h'
p1851
F0.50078
sS'qs5c'
p1852
F0.501375
sS'qs5d'
p1853
F0.50204
sS'3s8s'
p1854
F0.410005
sS'4d3s'
p1855
F0.35069
sS'4d3d'
p1856
F0.387665
sS'3s8d'
p1857
F0.376565
sS'3s8c'
p1858
F0.375825
sS'4d3c'
p1859
F0.34901
sS'qsqh'
p1860
F0.800585
sS'4d3h'
p1861
F0.34994
sS'3s8h'
p1862
F0.375715
sS'kckc'
p1863
I0
sS'jd4h'
p1864
F0.46162
sS'kckd'
p1865
F0.82308
sS'jd4c'
p1866
F0.46446
sS'kckh'
p1867
F0.822045
sS'ks2d'
p1868
F0.504725
sS'jsts'
p1869
F0.574515
sS'kcks'
p1870
F0.823745
sS'jsth'
p1871
F0.552805
sS'jstd'
p1872
F0.553695
sS'ks2s'
p1873
F0.534295
sS'jstc'
p1874
F0.55129
sS'kh8h'
p1875
F0.58483
sS'tc8h'
p1876
F0.49929
sS'tc8c'
p1877
F0.522825
sS'tc8d'
p1878
F0.496675
sS'qd4d'
p1879
F0.517985
sS'td4s'
p1880
F0.434295
sS'kh8d'
p1881
F0.55823
sS'tc8s'
p1882
F0.49873
sS'kc9s'
p1883
F0.58034
sS'8s2h'
p1884
F0.366535
sS'8s2d'
p1885
F0.368655
sS'8s2c'
p1886
F0.36826
sS'9has'
p1887
F0.608005
sS'7c8h'
p1888
F0.4511
sS'9hah'
p1889
F0.62954
sS'9had'
p1890
F0.608175
sS'7c8c'
p1891
F0.478655
sS'7c8d'
p1892
F0.449975
sS'9hac'
p1893
F0.607655
sS'9d4h'
p1894
F0.406445
sS'ah5h'
p1895
F0.60163
sS'9d4d'
p1896
F0.43938
sS'9d4c'
p1897
F0.405925
sS'jcjh'
p1898
F0.774295
sS'7d6h'
p1899
F0.421965
sS'qs7d'
p1900
F0.517895
sS'9d4s'
p1901
F0.40683
sS'7d6c'
p1902
F0.423295
sS'tcas'
p1903
F0.6288
sS'kc9c'
p1904
F0.60315
sS'7c9c'
p1905
F0.489875
sS'ts8s'
p1906
F0.52591
sS'ts8h'
p1907
F0.49507
sS'ts8c'
p1908
F0.496595
sS'ts8d'
p1909
F0.498965
sS'4has'
p1910
F0.569295
sS'jdkh'
p1911
F0.607475
sS'jdkc'
p1912
F0.60594
sS'6h7s'
p1913
F0.42358
sS'7c9h'
p1914
F0.462355
sS'4hac'
p1915
F0.56832
sS'kc3h'
p1916
F0.51405
sS'4had'
p1917
F0.568515
sS'jdks'
p1918
F0.608215
sS'6h7d'
p1919
F0.42355
sS'6h7c'
p1920
F0.421505
sS'kc3d'
p1921
F0.51308
sS'3c8d'
p1922
F0.37421
sS'3c8c'
p1923
F0.407765
sS'2s6h'
p1924
F0.342285
sS'2s6d'
p1925
F0.343635
sS'2s6c'
p1926
F0.340825
sS'7sqs'
p1927
F0.545235
sS'7sqh'
p1928
F0.51914
sS'ad2c'
p1929
F0.55234
sS'9s2c'
p1930
F0.393045
sS'7sqd'
p1931
F0.517685
sS'2s6s'
p1932
F0.37724
sS'7sqc'
p1933
F0.51761
sS'9h4s'
p1934
F0.40882
sS'2hth'
p1935
F0.447745
sS'2htd'
p1936
F0.416345
sS'5hqs'
p1937
F0.501035
sS'2htc'
p1938
F0.41578
sS'5hqh'
p1939
F0.527865
sS'tcah'
p1940
F0.627245
sS'qdqc'
p1941
F0.80007
sS'9h4d'
p1942
F0.40672
sS'5hqc'
p1943
F0.499675
sS'5hqd'
p1944
F0.500685
sS'2hts'
p1945
F0.41704
sS'2skh'
p1946
F0.503685
sS'qd2c'
p1947
F0.472345
sS'qd2d'
p1948
F0.50275
sS'qd2h'
p1949
F0.47188
sS'8sas'
p1950
F0.6209
sS'2skd'
p1951
F0.502305
sS'qd2s'
p1952
F0.47209
sS'2sks'
p1953
F0.53198
sS'9sjc'
p1954
F0.53241
sS'7s8h'
p1955
F0.44969
sS'6c7s'
p1956
F0.42196
sS'7cqh'
p1957
F0.513685
sS'9sjd'
p1958
F0.531995
sS'7s8c'
p1959
F0.45495
sS'9sjh'
p1960
F0.53056
sS'7s8d'
p1961
F0.45107
sS'ad2d'
p1962
F0.576365
sS'9sjs'
p1963
F0.556365
sS'6d5c'
p1964
F0.4004
sS'6d5d'
p1965
F0.42984
sS'9s2s'
p1966
F0.42704
sS'7s8s'
p1967
F0.481765
sS'7cqs'
p1968
F0.51773
sS'6c7h'
p1969
F0.42377
sS'ahqs'
p1970
F0.643185
sS'ad7c'
p1971
F0.591435
sS'ad7d'
p1972
F0.61035
sS'3h9s'
p1973
F0.401765
sS'ad7h'
p1974
F0.5879
sS'ad7s'
p1975
F0.58946
sS'3h9h'
p1976
F0.43451
sS'3h9c'
p1977
F0.39852
sS'3h9d'
p1978
F0.399025
sS'ah7d'
p1979
F0.588815
sS'ah7c'
p1980
F0.58759
sS'8sah'
p1981
F0.59919
sS'jc9d'
p1982
F0.53144
sS'ah7h'
p1983
F0.611
sS'jsjh'
p1984
F0.77312
sS'ah7s'
p1985
F0.587965
sS'khth'
p1986
F0.620115
sS'ks3h'
p1987
F0.51462
sS'jd5s'
p1988
F0.472425
sS'ks3c'
p1989
F0.514045
sS'6has'
p1990
F0.576405
sS'2cas'
p1991
F0.55084
sS'ks3d'
p1992
F0.51456
sS'6hah'
p1993
F0.601055
sS'ac3s'
p1994
F0.555805
sS'2cah'
p1995
F0.55273
sS'ks3s'
p1996
F0.540915
sS'2cad'
p1997
F0.548525
sS'2cac'
p1998
F0.57457
sS'7hqd'
p1999
F0.518905
sS'3dks'
p2000
F0.51512
sS'7hqc'
p2001
F0.51977
sS'7hqh'
p2002
F0.54229
sS'ahts'
p2003
F0.625955
sS'3dkc'
p2004
F0.514485
sS'3dkd'
p2005
F0.539335
sS'7hqs'
p2006
F0.51612
sS'3dkh'
p2007
F0.517815
sS'8hqc'
p2008
F0.53509
sS'3cah'
p2009
F0.55786
sS'qctc'
p2010
F0.594715
sS'jc9c'
p2011
F0.556295
sS'4c3h'
p2012
F0.353095
sS'qctd'
p2013
F0.57174
sS'3cac'
p2014
F0.581055
sS'8c5s'
p2015
F0.41287
sS'2c6s'
p2016
F0.341015
sS'3cad'
p2017
F0.55628
sS'8c5h'
p2018
F0.412595
sS'ts4h'
p2019
F0.43675
sS'2c6h'
p2020
F0.338395
sS'3cas'
p2021
F0.557245
sS'2c6d'
p2022
F0.341055
sS'2c6c'
p2023
F0.37613
sS'4c3s'
p2024
F0.35107
sS'adqs'
p2025
F0.641805
sS'ahth'
p2026
F0.64472
sS'qs6d'
p2027
F0.510885
sS'7h3c'
p2028
F0.36332
sS'jsas'
p2029
F0.652465
sS'7h3d'
p2030
F0.36656
sS'qs6h'
p2031
F0.51164
sS'jsad'
p2032
F0.635065
sS'jsac'
p2033
F0.63353
sS'ahtd'
p2034
F0.625
sS'jsah'
p2035
F0.633755
sS'4s3s'
p2036
F0.38545
sS'4h4s'
p2037
F0.570115
sS'3dtd'
p2038
F0.456965
sS'4h4h'
p2039
I0
sS'4s3h'
p2040
F0.349485
sS'4h4d'
p2041
F0.56985
sS'4s3d'
p2042
F0.351065
sS'4s3c'
p2043
F0.35406
sS'4h4c'
p2044
F0.56927
sS'3s9s'
p2045
F0.43172
sS'4d4s'
p2046
F0.57087
sS'th2h'
p2047
F0.450485
sS'th2d'
p2048
F0.415835
sS'ts4c'
p2049
F0.436455
sS'7ctd'
p2050
F0.479825
sS'kdtd'
p2051
F0.618655
sS'3s9c'
p2052
F0.3997
sS'4d4c'
p2053
F0.56928
sS'4d4d'
p2054
I0
sS'3s9d'
p2055
F0.402755
sS'kdtc'
p2056
F0.598465
sS'4d4h'
p2057
F0.572845
sS'3s9h'
p2058
F0.39956
sS'6hqc'
p2059
F0.508455
sS'7ctc'
p2060
F0.507205
sS'9h7s'
p2061
F0.46429
sS'2cqc'
p2062
F0.5026
sS'9h7h'
p2063
F0.491275
sS'2dqh'
p2064
F0.47403
sS'9h7d'
p2065
F0.46214
sS'9h7c'
p2066
F0.46223
sS'7c9d'
p2067
F0.46222
sS'2sjh'
p2068
F0.444345
sS'5sjh'
p2069
F0.47074
sS'2sjc'
p2070
F0.4427
sS'5sjd'
p2071
F0.472545
sS'5sjc'
p2072
F0.471675
sS'2sjd'
p2073
F0.44275
sS'qc3h'
p2074
F0.48119
sS'tcac'
p2075
F0.645225
sS'tcad'
p2076
F0.624035
sS'7cth'
p2077
F0.479335
sS'7c9s'
p2078
F0.460635
sS'2sjs'
p2079
F0.471495
sS'khkd'
p2080
F0.82233
sS'5sjs'
p2081
F0.50159
sS'kh3c'
p2082
F0.51445
sS'8s5h'
p2083
F0.412255
sS'jsjc'
p2084
F0.774665
sS'8s5c'
p2085
F0.413185
sS'8s5d'
p2086
F0.41339
sS'6cks'
p2087
F0.54451
sS'ahqd'
p2088
F0.645445
sS'6ckh'
p2089
F0.54287
sS'ahqc'
p2090
F0.642205
sS'6ckd'
p2091
F0.54241
sS'8s5s'
p2092
F0.444625
sS'ahqh'
p2093
F0.663455
sS'6ckc'
p2094
F0.569865
sS'3has'
p2095
F0.55897
sS'9d7h'
p2096
F0.463745
sS'9d7c'
p2097
F0.46051
sS'9d7d'
p2098
F0.48777
sS'3hac'
p2099
F0.561435
sS'3had'
p2100
F0.56033
sS'9d7s'
p2101
F0.462655
sS'3hah'
p2102
F0.58064
sS'3sqh'
p2103
F0.48101
sS'ad6h'
p2104
F0.57489
sS'jc5c'
p2105
F0.498575
sS'ad6d'
p2106
F0.60013
sS'3sqc'
p2107
F0.484495
sS'3sqd'
p2108
F0.47985
sS'ad6c'
p2109
F0.57915
sS'3sqs'
p2110
F0.51203
sS'ad6s'
p2111
F0.574755
sS'ah6c'
p2112
F0.57648
sS'ts6s'
p2113
F0.49047
sS'jc5s'
p2114
F0.47335
sS'9h9s'
p2115
F0.72057
sS'ah6h'
p2116
F0.60002
sS'9h9d'
p2117
F0.71817
sS'ah6s'
p2118
F0.57912
sS'9h9c'
p2119
F0.719625
sS'9h9h'
p2120
I0
sS'jc5h'
p2121
F0.47394
sS'qc6s'
p2122
F0.511375
sS'6h4s'
p2123
F0.378765
sS'jhad'
p2124
F0.63596
sS'6h4h'
p2125
F0.412635
sS'qc6c'
p2126
F0.53859
sS'6h4c'
p2127
F0.38278
sS'6h4d'
p2128
F0.38155
sS'ah6d'
p2129
F0.575665
sS'3c9c'
p2130
F0.433605
sS'3c9d'
p2131
F0.398345
sS'ts6d'
p2132
F0.46073
sS'3c9h'
p2133
F0.398925
sS'2s5d'
p2134
F0.3412
sS'3c9s'
p2135
F0.402235
sS'jhtc'
p2136
F0.552755
sS'2s5s'
p2137
F0.37843
sS'4c2h'
p2138
F0.33152
sS'8c4s'
p2139
F0.393835
sS'2c5s'
p2140
F0.340375
sS'4c2c'
p2141
F0.36569
sS'4c2d'
p2142
F0.3322
sS'2c5h'
p2143
F0.33896
sS'8c4h'
p2144
F0.3976
sS'8c4c'
p2145
F0.427405
sS'2c5c'
p2146
F0.37498
sS'4c2s'
p2147
F0.330865
sS'2c5d'
p2148
F0.340245
sS'8c4d'
p2149
F0.39077
sS'5d3c'
p2150
F0.359855
sS'jc9s'
p2151
F0.529025
sS'5d3d'
p2152
F0.39834
sS'5d3h'
p2153
F0.36252
sS'2h2s'
p2154
F0.502795
sS'5d3s'
p2155
F0.36498
sS'2h2h'
p2156
I0
sS'jd9h'
p2157
F0.533165
sS'2h2d'
p2158
F0.50414
sS'2h2c'
p2159
F0.502775
sS'8skh'
p2160
F0.56133
sS'ad3c'
p2161
F0.556165
sS'qdts'
p2162
F0.572725
sS'9skh'
p2163
F0.57467
sS'7s9s'
p2164
F0.49069
sS'8skc'
p2165
F0.561955
sS'8skd'
p2166
F0.56102
sS'7s9d'
p2167
F0.46245
sS'qdtd'
p2168
F0.594955
sS'qdtc'
p2169
F0.569965
sS'7s9c'
p2170
F0.462195
sS'ks6h'
p2171
F0.540295
sS'8sks'
p2172
F0.585385
sS'ks7h'
p2173
F0.552395
sS'7s9h'
p2174
F0.462645
sS'9sks'
p2175
F0.60001
sS'qdth'
p2176
F0.570505
sS'6s3d'
p2177
F0.36028
sS'3h8d'
p2178
F0.375415
sS'5h9s'
p2179
F0.425465
sS'qsac'
p2180
F0.64661
sS'5c2s'
p2181
F0.34049
sS'3h8c'
p2182
F0.376055
sS'6s3c'
p2183
F0.36075
sS'qhtc'
p2184
F0.57417
sS'6s3h'
p2185
F0.36027
sS'3h8h'
p2186
F0.40889
sS'qsah'
p2187
F0.641585
sS'5c2d'
p2188
F0.341075
sS'5h9c'
p2189
F0.424515
sS'5h9d'
p2190
F0.425885
sS'5c2c'
p2191
F0.377545
sS'3h8s'
p2192
F0.37821
sS'6s3s'
p2193
F0.39712
sS'5h9h'
p2194
F0.4567
sS'5c2h'
p2195
F0.33932
sS'jdkd'
p2196
F0.6239
sS'4s2s'
p2197
F0.366735
sS'4h5s'
p2198
F0.38379
sS'4s2h'
p2199
F0.331975
sS'4h5h'
p2200
F0.412985
sS'4s2c'
p2201
F0.32962
sS'4h5d'
p2202
F0.381925
sS'4h5c'
p2203
F0.381975
sS'4s2d'
p2204
F0.332155
sS'4d5s'
p2205
F0.38431
sS'th3h'
p2206
F0.457425
sS'th3c'
p2207
F0.42874
sS'kc3c'
p2208
F0.540675
sS'th3d'
p2209
F0.42604
sS'3s6s'
p2210
F0.39602
sS'4d5c'
p2211
F0.385575
sS'3s6h'
p2212
F0.36272
sS'4d5d'
p2213
F0.41496
sS'3s6d'
p2214
F0.36079
sS'th3s'
p2215
F0.425975
sS'4d5h'
p2216
F0.384095
sS'3s6c'
p2217
F0.35913
sS'5s2d'
p2218
F0.345405
sS'jd2s'
p2219
F0.44575
sS'5s2c'
p2220
F0.34577
sS'khks'
p2221
F0.82585
sS'5s2h'
p2222
F0.345495
sS'qsqc'
p2223
F0.799665
sS'jd2c'
p2224
F0.44455
sS'jd2d'
p2225
F0.47729
sS'5s2s'
p2226
F0.380145
sS'khkc'
p2227
F0.82368
sS'jd2h'
p2228
F0.445125
sS'khkh'
p2229
I0
sS'3djs'
p2230
F0.45488
sS'6sts'
p2231
F0.492075
sS'jc9h'
p2232
F0.532325
sS'6c3s'
p2233
F0.36205
sS'qc6d'
p2234
F0.51191
sS'6c3d'
p2235
F0.36008
sS'6stc'
p2236
F0.46139
sS'6std'
p2237
F0.45971
sS'6c3c'
p2238
F0.39577
sS'6sth'
p2239
F0.45752
sS'3djh'
p2240
F0.44868
sS'6c3h'
p2241
F0.36041
sS'4d7s'
p2242
F0.38417
sS'thjd'
p2243
F0.55301
sS'8s4h'
p2244
F0.396355
sS'thjc'
p2245
F0.556485
sS'7h7s'
p2246
F0.661145
sS'8s4c'
p2247
F0.39308
sS'6cjs'
p2248
F0.478995
sS'thjh'
p2249
F0.57256
sS'8s4d'
p2250
F0.39275
sS'7h7d'
p2251
F0.66213
sS'4sqs'
p2252
F0.516325
sS'thjs'
p2253
F0.553625
sS'6cjh'
p2254
F0.479085
sS'8s4s'
p2255
F0.42698
sS'6cjd'
p2256
F0.47606
sS'6cjc'
p2257
F0.505445
sS'9d6s'
p2258
F0.444045
sS'9d6d'
p2259
F0.47596
sS'qc6h'
p2260
F0.5096
sS'9d6c'
p2261
F0.446235
sS'9d6h'
p2262
F0.44211
sS'6ctc'
p2263
F0.48852
sS'9hqh'
p2264
F0.575405
sS'6ctd'
p2265
F0.463535
sS'kdah'
p2266
F0.6521
sS'9hqd'
p2267
F0.55092
sS'6cth'
p2268
F0.46233
sS'kdad'
p2269
F0.66854
sS'2s5h'
p2270
F0.341615
sS'jh8d'
p2271
F0.51206
sS'9hqc'
p2272
F0.5533
sS'6cts'
p2273
F0.461125
sS'jh8s'
p2274
F0.5107
sS'kdqd'
p2275
F0.635485
sS'acjd'
p2276
F0.636355
sS'9hqs'
p2277
F0.554195
sS'thqs'
p2278
F0.572855
sS'4ckd'
p2279
F0.52388
sS'4ckc'
p2280
F0.55159
sS'qs7h'
p2281
F0.51863
sS'7h9s'
p2282
F0.460065
sS'4ckh'
p2283
F0.5244
sS'2d8s'
p2284
F0.370745
sS'9dkd'
p2285
F0.598175
sS'4cks'
p2286
F0.5233
sS'7h9h'
p2287
F0.488435
sS'2s5c'
p2288
F0.344715
sS'7h9d'
p2289
F0.462935
sS'7h9c'
p2290
F0.46271
sS'9dkh'
p2291
F0.57701
sS'qc7s'
p2292
F0.51778
sS'4sqh'
p2293
F0.4923
sS'qc7c'
p2294
F0.546075
sS'qc7d'
p2295
F0.519765
sS'2dqc'
p2296
F0.473305
sS'qc7h'
p2297
F0.517735
sS'jd9s'
p2298
F0.53272
sS'8cad'
p2299
F0.6028
sS'jc6c'
p2300
F0.505015
sS'3c6h'
p2301
F0.360875
sS'2s4s'
p2302
F0.3677
sS'8cac'
p2303
F0.61837
sS'3c6d'
p2304
F0.36051
sS'7d7s'
p2305
F0.66248
sS'8cah'
p2306
F0.60048
sS'3c6c'
p2307
F0.39526
sS'7d7h'
p2308
F0.66163
sS'2s4d'
p2309
F0.33193
sS'2s4c'
p2310
F0.3291
sS'8cas'
p2311
F0.59799
sS'7d7c'
p2312
F0.66101
sS'7d7d'
p2313
I0
sS'2s4h'
p2314
F0.335335
sS'3c6s'
p2315
F0.358925
sS'ksjs'
p2316
F0.6257
sS'2hjs'
p2317
F0.444685
sS'9h6s'
p2318
F0.44316
sS'thts'
p2319
F0.75045
sS'2hjd'
p2320
F0.441705
sS'9h6h'
p2321
F0.47241
sS'ksjc'
p2322
F0.607495
sS'thth'
p2323
I0
sS'2hjc'
p2324
F0.445895
sS'thtd'
p2325
F0.74996
sS'9h6c'
p2326
F0.44588
sS'2hjh'
p2327
F0.472475
sS'9h6d'
p2328
F0.44374
sS'thtc'
p2329
F0.751495
sS'5skh'
p2330
F0.53312
sS'tdts'
p2331
F0.750165
sS'5skc'
p2332
F0.532675
sS'kd6h'
p2333
F0.542825
sS'kh2s'
p2334
F0.50432
sS'5skd'
p2335
F0.53284
sS'8h2s'
p2336
F0.367065
sS'tdtc'
p2337
F0.749965
sS'tdtd'
p2338
I0
sS'kh2h'
p2339
F0.532525
sS'tdth'
p2340
F0.748045
sS'5sks'
p2341
F0.557285
sS'kh2d'
p2342
F0.504565
sS'kh2c'
p2343
F0.50843
sS'kd6d'
p2344
F0.566915
sS'jcqs'
p2345
F0.58421
sS'8sjs'
p2346
F0.53907
sS'8sjd'
p2347
F0.51609
sS'jcqd'
p2348
F0.58019
sS'jcqc'
p2349
F0.602405
sS'8sjc'
p2350
F0.51452
sS'8sjh'
p2351
F0.516025
sS'jcqh'
p2352
F0.580765
sS'5h8s'
p2353
F0.41349
sS'5c3s'
p2354
F0.364545
sS'6s2d'
p2355
F0.341555
sS'6s2c'
p2356
F0.345605
sS'8dac'
p2357
F0.59778
sS'3cqs'
p2358
F0.482135
sS'6s2h'
p2359
F0.339645
sS'5h8c'
p2360
F0.41311
sS'3cqh'
p2361
F0.481405
sS'5c3c'
p2362
F0.397025
sS'6s2s'
p2363
F0.378575
sS'5c3d'
p2364
F0.364175
sS'5h8d'
p2365
F0.41559
sS'8das'
p2366
F0.599015
sS'5c3h'
p2367
F0.3626
sS'3cqc'
p2368
F0.508525
sS'5h8h'
p2369
F0.4443
sS'3cqd'
p2370
F0.48158
sS'kh3s'
p2371
F0.51507
sS'6h5d'
p2372
F0.399025
sS'9h8s'
p2373
F0.48159
sS'6h5c'
p2374
F0.399625
sS'ah9d'
p2375
F0.608945
sS'as2h'
p2376
F0.549595
sS'6h5h'
p2377
F0.43077
sS'7cas'
p2378
F0.586945
sS'ah9c'
p2379
F0.6081
sS'as2s'
p2380
F0.574465
sS'9h8d'
p2381
F0.48258
sS'9h8c'
p2382
F0.4796
sS'7cah'
p2383
F0.590105
sS'6h5s'
p2384
F0.39684
sS'2h9d'
p2385
F0.39026
sS'7cad'
p2386
F0.58969
sS'7cac'
p2387
F0.61052
sS'9h8h'
p2388
F0.506575
sS'jd3s'
p2389
F0.452935
sS'qh5h'
p2390
F0.52986
sS'5s3c'
p2391
F0.36594
sS'khjs'
p2392
F0.604155
sS'5s3d'
p2393
F0.36201
sS'8cjd'
p2394
F0.51529
sS'5s3h'
p2395
F0.363135
sS'jd3c'
p2396
F0.453625
sS'5s3s'
p2397
F0.397735
sS'khjd'
p2398
F0.60347
sS'khjc'
p2399
F0.60518
sS'jd3d'
p2400
F0.48444
sS'jd3h'
p2401
F0.45224
sS'khjh'
p2402
F0.62462
sS'qdah'
p2403
F0.643135
sS'2c4d'
p2404
F0.330135
sS'8c7d'
p2405
F0.449025
sS'6c2s'
p2406
F0.341315
sS'8c7c'
p2407
F0.48135
sS'2c4c'
p2408
F0.368635
sS'ks8h'
p2409
F0.559315
sS'qdac'
p2410
F0.64582
sS'4das'
p2411
F0.566
sS'2c4h'
p2412
F0.33128
sS'8c7h'
p2413
F0.45064
sS'tc5s'
p2414
F0.44242
sS'6c2d'
p2415
F0.341195
sS'6c2c'
p2416
F0.376265
sS'8c7s'
p2417
F0.44952
sS'2c4s'
p2418
F0.33024
sS'4dah'
p2419
F0.565905
sS'tc5d'
p2420
F0.442655
sS'4dad'
p2421
F0.588195
sS'4dac'
p2422
F0.5679
sS'6c2h'
p2423
F0.342455
sS'adth'
p2424
F0.62392
sS'ac2s'
p2425
F0.550455
sS'5d2h'
p2426
F0.340465
sS'kh3h'
p2427
F0.54067
sS'5d2d'
p2428
F0.379415
sS'2h3s'
p2429
F0.322035
sS'5d2c'
p2430
F0.341965
sS'9s4s'
p2431
F0.437395
sS'2h9s'
p2432
F0.38826
sS'ac2d'
p2433
F0.547675
sS'2h3h'
p2434
F0.362485
sS'ac2h'
p2435
F0.547205
sS'2h3d'
p2436
F0.3229
sS'2h3c'
p2437
F0.324065
sS'5d2s'
p2438
F0.343145
sS'ts5h'
p2439
F0.44182
sS'jh9s'
p2440
F0.53108
sS'4d8s'
p2441
F0.39579
sS'ts5d'
p2442
F0.439115
sS'ts5c'
p2443
F0.441095
sS'4d8d'
p2444
F0.42548
sS'jh9d'
p2445
F0.531285
sS'jh9c'
p2446
F0.531125
sS'4d8c'
p2447
F0.39515
sS'4d8h'
p2448
F0.396605
sS'jh9h'
p2449
F0.557955
sS'ts5s'
p2450
F0.472
sS'5ctd'
p2451
F0.44417
sS'4cjc'
p2452
F0.491625
sS'qs8h'
p2453
F0.53563
sS'4cjd'
p2454
F0.462415
sS'5ctc'
p2455
F0.46949
sS'qs8d'
p2456
F0.53664
sS'4cjh'
p2457
F0.46393
sS'7h8s'
p2458
F0.449095
sS'5cth'
p2459
F0.44453
sS'qs8c'
p2460
F0.53553
sS'7h8h'
p2461
F0.47651
sS'4cjs'
p2462
F0.462695
sS'9djd'
p2463
F0.560625
sS'5cts'
p2464
F0.44231
sS'9djh'
p2465
F0.533195
sS'7h8c'
p2466
F0.450835
sS'7h8d'
p2467
F0.44918
sS'qs8s'
p2468
F0.562035
sS'kdkh'
p2469
F0.82509
sS'4h6s'
p2470
F0.380105
sS'4h6h'
p2471
F0.411685
sS'jc7c'
p2472
F0.524765
sS'4h6c'
p2473
F0.3817
sS'4h6d'
p2474
F0.380195
sS'kh3d'
p2475
F0.51323
sS'jsqd'
p2476
F0.57982
sS'jsqc'
p2477
F0.57951
sS'3s7s'
p2478
F0.39956
sS'4d6s'
p2479
F0.38228
sS'jsqh'
p2480
F0.578465
sS'ah4h'
p2481
F0.58587
sS'jsqs'
p2482
F0.60431
sS'4d6h'
p2483
F0.382995
sS'3s7h'
p2484
F0.365485
sS'4d6d'
p2485
F0.414715
sS'3s7d'
p2486
F0.366475
sS'3s7c'
p2487
F0.3658
sS'4d6c'
p2488
F0.38445
sS'ksks'
p2489
I0
sS'2hks'
p2490
F0.506575
sS'9c2s'
p2491
F0.38714
sS'kskc'
p2492
F0.824505
sS'9c2h'
p2493
F0.39
sS'2hkd'
p2494
F0.50246
sS'2hkc'
p2495
F0.504615
sS'kskd'
p2496
F0.82287
sS'9c2c'
p2497
F0.42139
sS'kskh'
p2498
F0.82308
sS'9c2d'
p2499
F0.389125
sS'2hkh'
p2500
F0.533075
sS'qd8c'
p2501
F0.537535
sS'5sts'
p2502
F0.47305
sS'ac3d'
p2503
F0.559935
sS'5std'
p2504
F0.44343
sS'5stc'
p2505
F0.442185
sS'jcts'
p2506
F0.550575
sS'5sth'
p2507
F0.443485
sS'9s7s'
p2508
F0.4918
sS'thkc'
p2509
F0.59735
sS'qcqd'
p2510
F0.80001
sS'7h6s'
p2511
F0.421155
sS'8s7s'
p2512
F0.47778
sS'thkh'
p2513
F0.61814
sS'qh5c'
p2514
F0.50068
sS'qcqh'
p2515
F0.800555
sS'8s7d'
p2516
F0.45173
sS'7h6d'
p2517
F0.419635
sS'7h6c'
p2518
F0.423775
sS'8s7c'
p2519
F0.452085
sS'qcjd'
p2520
F0.57998
sS'8s7h'
p2521
F0.451085
sS'7h6h'
p2522
F0.451295
sS'ackd'
p2523
F0.654015
sS'kdks'
p2524
F0.822655
sS'ackc'
p2525
F0.670085
sS'4cts'
p2526
F0.43523
sS'ackh'
p2527
F0.654355
sS'acks'
p2528
F0.651
sS'4cth'
p2529
F0.4352
sS'4ctd'
p2530
F0.43621
sS'4ctc'
p2531
F0.46271
sS'qhth'
p2532
F0.59584
sS'6dqh'
p2533
F0.51135
sS'7sjs'
p2534
F0.52339
sS'7sjh'
p2535
F0.49983
sS'3dtc'
p2536
F0.425725
sS'7sjd'
p2537
F0.49738
sS'9s7c'
p2538
F0.46585
sS'7sjc'
p2539
F0.49815
sS'6h2c'
p2540
F0.34159
sS'6h2d'
p2541
F0.34072
sS'as3h'
p2542
F0.557805
sS'ah8h'
p2543
F0.62087
sS'6h2h'
p2544
F0.376835
sS'as3d'
p2545
F0.5594
sS'ah8d'
p2546
F0.599045
sS'ah8c'
p2547
F0.599515
sS'js9s'
p2548
F0.553915
sS'as3c'
p2549
F0.559175
sS'6h2s'
p2550
F0.341215
sS'js9h'
p2551
F0.53408
sS'js9d'
p2552
F0.53446
sS'ah8s'
p2553
F0.59896
sS'js9c'
p2554
F0.53461
sS'as3s'
p2555
F0.5836
sS'7std'
p2556
F0.47797
sS'qsqs'
p2557
I0
sS'7stc'
p2558
F0.479815
sS'4sth'
p2559
F0.43433
sS'6dqd'
p2560
F0.53705
sS'4std'
p2561
F0.43486
sS'4stc'
p2562
F0.43195
sS'7sth'
p2563
F0.477895
sS'qc8s'
p2564
F0.5357
sS'qcts'
p2565
F0.572085
sS'qsqd'
p2566
F0.800005
sS'qc8h'
p2567
F0.53662
sS'7sts'
p2568
F0.505495
sS'qc8d'
p2569
F0.53747
sS'4sts'
p2570
F0.463755
sS'6dqs'
p2571
F0.5122
sS'qc8c'
p2572
F0.560895
sS'kd9d'
p2573
F0.60091
sS'2s3s'
p2574
F0.35813
sS'kd9c'
p2575
F0.57811
sS'3c7h'
p2576
F0.366315
sS'7d6s'
p2577
F0.421485
sS'3sas'
p2578
F0.58167
sS'3c7d'
p2579
F0.36447
sS'3c7c'
p2580
F0.40297
sS'kd9h'
p2581
F0.57642
sS'3sah'
p2582
F0.55576
sS'2s3c'
p2583
F0.321185
sS'2s3d'
p2584
F0.323555
sS'kd9s'
p2585
F0.577095
sS'2s3h'
p2586
F0.32068
sS'3sac'
p2587
F0.55854
sS'3c7s'
p2588
F0.36554
sS'3sad'
p2589
F0.558765
sS'7d6d'
p2590
F0.451535
sS'jc7d'
p2591
F0.496965
sS'9s2h'
p2592
F0.38565
sS'5h5s'
p2593
F0.602285
sS'8hjs'
p2594
F0.51412
sS'9s2d'
p2595
F0.390915
sS'5h5d'
p2596
F0.60869
sS'8hjh'
p2597
F0.539775
sS'5h5c'
p2598
F0.603655
sS'8hjc'
p2599
F0.51356
sS'qhtd'
p2600
F0.5704
sS'5h5h'
p2601
I0
sS'8hjd'
p2602
F0.5157
sS'5d5h'
p2603
F0.6025
sS'5d5c'
p2604
F0.60643
sS'5d5d'
p2605
I0
sS'qckh'
p2606
F0.61422
sS'ac3h'
p2607
F0.55857
sS'qsas'
p2608
F0.66034
sS'5d5s'
p2609
F0.60627
sS'ac3c'
p2610
F0.584345
sS'2dqs'
p2611
F0.473825
sS'7cts'
p2612
F0.4775
sS'js7s'
p2613
F0.523655
sS'6d8s'
p2614
F0.43205
sS'js7d'
p2615
F0.497385
sS'qhts'
p2616
F0.572595
sS'6d8h'
p2617
F0.43033
sS'2dqd'
p2618
F0.501485
sS'js7c'
p2619
F0.499735
sS'6d8c'
p2620
F0.433635
sS'js7h'
p2621
F0.4978
sS'6d8d'
p2622
F0.463395
sS'8sqd'
p2623
F0.534865
sS'8sqc'
p2624
F0.53653
sS'jc7s'
p2625
F0.49531
sS'8sqh'
p2626
F0.53498
sS'jc2h'
p2627
F0.444855
sS'8sqs'
p2628
F0.557695
sS'6dqc'
p2629
F0.50937
sS'3cjh'
p2630
F0.453115
sS'2d8h'
p2631
F0.366685
sS'3s4s'
p2632
F0.38395
sS'2d8d'
p2633
F0.40235
sS'3cjc'
p2634
F0.480735
sS'3cjd'
p2635
F0.452905
sS'2d8c'
p2636
F0.369605
sS'4d7h'
p2637
F0.387615
sS'3s4h'
p2638
F0.350915
sS'kdqh'
p2639
F0.613625
sS'3s4c'
p2640
F0.351365
sS'4d7c'
p2641
F0.387035
sS'3cjs'
p2642
F0.45296
sS'4d7d'
p2643
F0.41714
sS'3s4d'
p2644
F0.350175
sS'th4s'
p2645
F0.433855
sS'8c6c'
p2646
F0.4645
sS'2c3c'
p2647
F0.35765
sS'2c3d'
p2648
F0.32091
sS'8c6d'
p2649
F0.431005
sS'2c3h'
p2650
F0.322805
sS'8c6h'
p2651
F0.43296
sS'tc4s'
p2652
F0.433775
sS'8c6s'
p2653
F0.43212
sS'2c3s'
p2654
F0.32333
sS'tc4h'
p2655
F0.43434
sS'tc4d'
p2656
F0.43212
sS'tc4c'
p2657
F0.464515
sS'7h5s'
p2658
F0.406115
sS'8s6s'
p2659
F0.459435
sS'qs9d'
p2660
F0.55198
sS'8cqs'
p2661
F0.534875
sS'jc5d'
p2662
F0.471855
sS'8cqd'
p2663
F0.534605
sS'7h5c'
p2664
F0.40313
sS'8s6c'
p2665
F0.4314
sS'ksah'
p2666
F0.65363
sS'8s6d'
p2667
F0.43487
sS'7h5d'
p2668
F0.405675
sS'8cqc'
p2669
F0.561275
sS'8s6h'
p2670
F0.42973
sS'7h5h'
p2671
F0.43782
sS'8cqh'
p2672
F0.536
sS'5dkh'
p2673
F0.53172
sS'3dth'
p2674
F0.428235
sS'5dkc'
p2675
F0.531505
sS'5dkd'
p2676
F0.55485
sS'ah4s'
p2677
F0.56804
sS'5dks'
p2678
F0.53358
sS'3dts'
p2679
F0.427485
sS'2d6d'
p2680
F0.37588
sS'qc4c'
p2681
F0.5165
sS'4d9s'
p2682
F0.406475
sS'2d6c'
p2683
F0.340565
sS'qc4d'
p2684
F0.489485
sS'ts4d'
p2685
F0.43627
sS'2d6h'
p2686
F0.341745
sS'4d9d'
p2687
F0.44062
sS'4d9c'
p2688
F0.405725
sS'2d6s'
p2689
F0.33641
sS'ts4s'
p2690
F0.463075
sS'4d9h'
p2691
F0.408085
sS'8cjc'
p2692
F0.540925
sS'4h7d'
p2693
F0.386195
sS'4h7c'
p2694
F0.38417
sS'qs9h'
p2695
F0.55152
sS'qs9s'
p2696
F0.574565
sS'6hjs'
p2697
F0.481335
sS'qs9c'
p2698
F0.55282
sS'4h7h'
p2699
F0.42174
sS'6hjh'
p2700
F0.507225
sS'kdqc'
p2701
F0.61412
sS'tcqs'
p2702
F0.573315
sS'4h7s'
p2703
F0.385
sS'6hjc'
p2704
F0.47915
sS'6hjd'
p2705
F0.47985
s.